   1               		.file	"main.c"
   2               	__SREG__ = 0x3f
   3               	__SP_H__ = 0x3e
   4               	__SP_L__ = 0x3d
   5               	__CCP__  = 0x34
   6               	__tmp_reg__ = 0
   7               	__zero_reg__ = 1
  15               	.Ltext0:
  16               		.section	.text.StateMachine,"ax",@progbits
  17               	.global	StateMachine
  19               	StateMachine:
  20               	.LFB3:
  21               	.LSM0:
  22               	.LVL0:
  23               	/* prologue: function */
  24               	/* frame size = 0 */
  25 0000 582F      		mov r21,r24
  26               	.LSM1:
  27 0002 40E0      		ldi r20,lo8(0)
  28               	.LVL1:
  29 0004 00C0      		rjmp .L2
  30               	.LVL2:
  31               	.L5:
  32               	.LSM2:
  33 0006 8517      		cp r24,r21
  34 0008 01F4      		brne .L3
  35               	.LBB2:
  36               	.LSM3:
  37 000a F901      		movw r30,r18
  38 000c E050      		subi r30,lo8(-(menu_nextstate+1))
  39 000e F040      		sbci r31,hi8(-(menu_nextstate+1))
  40               	/* #APP */
  41               	 ;  273 "src/main.c" 1
  42 0010 E491      		lpm r30, Z
  43               		
  44               	 ;  0 "" 2
  45               	.LVL3:
  46               	/* #NOAPP */
  47               	.LBE2:
  48               	.LSM4:
  49 0012 E617      		cp r30,r22
  50 0014 01F4      		brne .L3
  51               	.LBB3:
  52               	.LSM5:
  53 0016 F901      		movw r30,r18
  54               	.LVL4:
  55 0018 E050      		subi r30,lo8(-(menu_nextstate+2))
  56 001a F040      		sbci r31,hi8(-(menu_nextstate+2))
  57               	/* #APP */
  58               	 ;  277 "src/main.c" 1
  59 001c 8491      		lpm r24, Z
  60               		
  61               	 ;  0 "" 2
  62               	.LVL5:
  63               	/* #NOAPP */
  64 001e 0895      		ret
  65               	.LVL6:
  66               	.L3:
  67               	.LBE3:
  68               	.LSM6:
  69 0020 4F5F      		subi r20,lo8(-(1))
  70               	.LVL7:
  71               	.L2:
  72               	.LBB4:
  73 0022 842F      		mov r24,r20
  74               	.LVL8:
  75 0024 90E0      		ldi r25,lo8(0)
  76 0026 9C01      		movw r18,r24
  77 0028 220F      		lsl r18
  78 002a 331F      		rol r19
  79 002c 280F      		add r18,r24
  80 002e 391F      		adc r19,r25
  81 0030 F901      		movw r30,r18
  82               	.LVL9:
  83 0032 E050      		subi r30,lo8(-(menu_nextstate))
  84 0034 F040      		sbci r31,hi8(-(menu_nextstate))
  85               	/* #APP */
  86               	 ;  268 "src/main.c" 1
  87 0036 8491      		lpm r24, Z
  88               		
  89               	 ;  0 "" 2
  90               	.LVL10:
  91               	/* #NOAPP */
  92               	.LBE4:
  93 0038 8823      		tst r24
  94 003a 01F4      		brne .L5
  95 003c 852F      		mov r24,r21
  96               	.LVL11:
  97               	.LVL12:
  98               	.LSM7:
  99 003e 0895      		ret
 100               	.LFE3:
 102               		.section	.text.Delay,"ax",@progbits
 103               	.global	Delay
 105               	Delay:
 106               	.LFB10:
 107               	.LSM8:
 108               	.LVL13:
 109               	/* prologue: function */
 110               	/* frame size = 0 */
 111 0000 00C0      		rjmp .L8
 112               	.LVL14:
 113               	.L10:
 114               	.LSM9:
 115 0002 20E0      		ldi r18,lo8(0)
 116               	.L9:
 117               	.LSM10:
 118               	/* #APP */
 119               	 ;  588 "src/main.c" 1
 120 0004 0000      		nop
 121               	 ;  0 "" 2
 122               	.LSM11:
 123               	/* #NOAPP */
 124 0006 2F5F      		subi r18,lo8(-(1))
 125 0008 2D37      		cpi r18,lo8(125)
 126 000a 01F4      		brne .L9
 127 000c 0197      		sbiw r24,1
 128               	.LVL15:
 129               	.L8:
 130               	.LSM12:
 131 000e 0097      		sbiw r24,0
 132 0010 01F4      		brne .L10
 133               	/* epilogue start */
 134               	.LSM13:
 135 0012 0895      		ret
 136               	.LFE10:
 138               		.section	.text.OSCCAL_calibration,"ax",@progbits
 139               	.global	OSCCAL_calibration
 141               	OSCCAL_calibration:
 142               	.LFB11:
 143               	.LSM14:
 144               	/* prologue: function */
 145               	/* frame size = 0 */
 146               	.LSM15:
 147 0000 80E8      		ldi r24,lo8(-128)
 148 0002 8093 6100 		sts 97,r24
 149               	.LSM16:
 150 0006 83E0      		ldi r24,lo8(3)
 151 0008 8093 6100 		sts 97,r24
 152               	.LSM17:
 153 000c 1092 7000 		sts 112,__zero_reg__
 154               	.LSM18:
 155 0010 88E0      		ldi r24,lo8(8)
 156 0012 8093 B600 		sts 182,r24
 157               	.LSM19:
 158 0016 88EC      		ldi r24,lo8(-56)
 159 0018 8093 B300 		sts 179,r24
 160               	.LSM20:
 161 001c 1092 6E00 		sts 110,__zero_reg__
 162               	.LSM21:
 163 0020 81E0      		ldi r24,lo8(1)
 164 0022 8093 8100 		sts 129,r24
 165               	.LSM22:
 166 0026 8093 B000 		sts 176,r24
 167               	.L14:
 168               	.LSM23:
 169 002a 2091 B600 		lds r18,182
 170 002e 8091 B600 		lds r24,182
 171 0032 90E0      		ldi r25,lo8(0)
 172 0034 8470      		andi r24,lo8(4)
 173 0036 9070      		andi r25,hi8(4)
 174 0038 30E0      		ldi r19,lo8(0)
 175 003a 2170      		andi r18,lo8(1)
 176 003c 3070      		andi r19,hi8(1)
 177 003e 822B      		or r24,r18
 178 0040 932B      		or r25,r19
 179 0042 892B      		or r24,r25
 180 0044 01F4      		brne .L14
 181               	.LSM24:
 182 0046 88EE      		ldi r24,lo8(1000)
 183 0048 93E0      		ldi r25,hi8(1000)
 184 004a 0E94 0000 		call Delay
 185               	.LSM25:
 186 004e 3FEF      		ldi r19,lo8(-1)
 187               	.LSM26:
 188 0050 41E0      		ldi r20,lo8(1)
 189               	.LVL16:
 190               	.L19:
 191               	.LSM27:
 192               	/* #APP */
 193               	 ;  634 "src/main.c" 1
 194 0052 F894      		cli
 195               	 ;  0 "" 2
 196               	.LSM28:
 197               	/* #NOAPP */
 198 0054 36BB      		out 54-32,r19
 199               	.LSM29:
 200 0056 37BB      		out 55-32,r19
 201               	.LSM30:
 202 0058 1092 8500 		sts 133,__zero_reg__
 203               	.LSM31:
 204 005c 1092 8400 		sts 132,__zero_reg__
 205               	.LSM32:
 206 0060 1092 B200 		sts 178,__zero_reg__
 207               	.L15:
 208               	.LSM33:
 209 0064 B99B      		sbis 55-32,1
 210 0066 00C0      		rjmp .L15
 211               	.LSM34:
 212 0068 1092 8100 		sts 129,__zero_reg__
 213               	.LSM35:
 214               	/* #APP */
 215               	 ;  648 "src/main.c" 1
 216 006c 7894      		sei
 217               	 ;  0 "" 2
 218               	.LSM36:
 219               	/* #NOAPP */
 220 006e B099      		sbic 54-32,0
 221 0070 00C0      		rjmp .L16
 222               	.LSM37:
 223 0072 2091 8400 		lds r18,132
 224               	.LVL17:
 225               	.LSM38:
 226 0076 8091 8500 		lds r24,133
 227 007a 90E0      		ldi r25,lo8(0)
 228               	.LSM39:
 229 007c 982F      		mov r25,r24
 230 007e 8827      		clr r24
 231               	.LVL18:
 232               	.LSM40:
 233 0080 820F      		add r24,r18
 234 0082 911D      		adc r25,__zero_reg__
 235               	.LSM41:
 236 0084 28E1      		ldi r18,hi8(6251)
 237 0086 8B36      		cpi r24,lo8(6251)
 238 0088 9207      		cpc r25,r18
 239               	.LVL19:
 240 008a 04F0      		brlt .L17
 241               	.LSM42:
 242 008c 8091 6600 		lds r24,102
 243               	.LVL20:
 244 0090 8150      		subi r24,lo8(-(-1))
 245 0092 00C0      		rjmp .L24
 246               	.LVL21:
 247               	.L17:
 248               	.LSM43:
 249 0094 885E      		subi r24,lo8(6120)
 250 0096 9741      		sbci r25,hi8(6120)
 251 0098 04F0      		brlt .L16
 252 009a 81E0      		ldi r24,lo8(1)
 253               	.LVL22:
 254 009c 00C0      		rjmp .L18
 255               	.LVL23:
 256               	.L16:
 257               	.LSM44:
 258 009e 8091 6600 		lds r24,102
 259               	.LVL24:
 260 00a2 8F5F      		subi r24,lo8(-(1))
 261               	.L24:
 262 00a4 8093 6600 		sts 102,r24
 263 00a8 80E0      		ldi r24,lo8(0)
 264               	.LVL25:
 265               	.L18:
 266               	.LSM45:
 267 00aa 4093 8100 		sts 129,r20
 268               	.LSM46:
 269 00ae 8823      		tst r24
 270 00b0 01F0      		breq .L19
 271               	/* epilogue start */
 272               	.LSM47:
 273 00b2 0895      		ret
 274               	.LFE11:
 276               		.section	.text.PowerSaveFunc,"ax",@progbits
 277               	.global	PowerSaveFunc
 279               	PowerSaveFunc:
 280               	.LFB6:
 281               	.LSM48:
 282               	.LVL26:
 283               	/* prologue: function */
 284               	/* frame size = 0 */
 285 0000 982F      		mov r25,r24
 286               	.LSM49:
 287 0002 8091 0000 		lds r24,enter.1671
 288               	.LVL27:
 289 0006 8823      		tst r24
 290 0008 01F0      		breq .L26
 291               	.LSM50:
 292 000a 1092 0000 		sts enter.1671,__zero_reg__
 293               	.LSM51:
 294 000e 80E0      		ldi r24,lo8(__c.1672)
 295 0010 90E0      		ldi r25,hi8(__c.1672)
 296 0012 61E0      		ldi r22,lo8(1)
 297 0014 0E94 0000 		call LCD_puts_f
 298               	.LVL28:
 299 0018 00C0      		rjmp .L31
 300               	.LVL29:
 301               	.L26:
 302               	.LSM52:
 303 001a 9130      		cpi r25,lo8(1)
 304 001c 01F4      		brne .L28
 305               	.LSM53:
 306 001e 9093 0000 		sts PowerSave,r25
 307               	.LSM54:
 308 0022 9093 0000 		sts enter.1671,r25
 309 0026 8AE0      		ldi r24,lo8(10)
 310 0028 0895      		ret
 311               	.L28:
 312               	.LSM55:
 313 002a 9330      		cpi r25,lo8(3)
 314 002c 01F0      		breq .L29
 315               	.L31:
 316 002e 81E6      		ldi r24,lo8(97)
 317 0030 0895      		ret
 318               	.L29:
 319               	.LSM56:
 320 0032 81E0      		ldi r24,lo8(1)
 321 0034 8093 0000 		sts enter.1671,r24
 322 0038 80E6      		ldi r24,lo8(96)
 323               	.LSM57:
 324 003a 0895      		ret
 325               	.LFE6:
 327               		.section	.text.BootFunc,"ax",@progbits
 328               	.global	BootFunc
 330               	BootFunc:
 331               	.LFB5:
 332               	.LSM58:
 333               	.LVL30:
 334               	/* prologue: function */
 335               	/* frame size = 0 */
 336 0000 982F      		mov r25,r24
 337               	.LSM59:
 338 0002 8091 0000 		lds r24,enter.1661
 339               	.LVL31:
 340 0006 8823      		tst r24
 341 0008 01F0      		breq .L33
 342               	.LSM60:
 343 000a 1092 0000 		sts enter.1661,__zero_reg__
 344               	.LSM61:
 345 000e 80E0      		ldi r24,lo8(__c.1662)
 346 0010 90E0      		ldi r25,hi8(__c.1662)
 347 0012 61E0      		ldi r22,lo8(1)
 348 0014 0E94 0000 		call LCD_puts_f
 349               	.LVL32:
 350 0018 00C0      		rjmp .L39
 351               	.LVL33:
 352               	.L33:
 353               	.LSM62:
 354 001a 9130      		cpi r25,lo8(1)
 355 001c 01F4      		brne .L35
 356               	.LSM63:
 357 001e 88E1      		ldi r24,lo8(24)
 358 0020 8093 6000 		sts 96,r24
 359               	.L36:
 360 0024 00C0      		rjmp .L36
 361               	.L35:
 362               	.LSM64:
 363 0026 9330      		cpi r25,lo8(3)
 364 0028 01F0      		breq .L37
 365               	.L39:
 366 002a 8FE5      		ldi r24,lo8(95)
 367 002c 0895      		ret
 368               	.L37:
 369               	.LSM65:
 370 002e 81E0      		ldi r24,lo8(1)
 371 0030 8093 0000 		sts enter.1661,r24
 372 0034 8EE5      		ldi r24,lo8(94)
 373               	.LSM66:
 374 0036 0895      		ret
 375               	.LFE5:
 377               		.section	.text.KeyClick,"ax",@progbits
 378               	.global	KeyClick
 380               	KeyClick:
 381               	.LFB9:
 382               	.LSM67:
 383               	.LVL34:
 384               	/* prologue: function */
 385               	/* frame size = 0 */
 386 0000 982F      		mov r25,r24
 387               	.LSM68:
 388 0002 8091 0000 		lds r24,enter.1702
 389               	.LVL35:
 390 0006 8823      		tst r24
 391 0008 01F0      		breq .L42
 392               	.LSM69:
 393 000a 1092 0000 		sts enter.1702,__zero_reg__
 394 000e 81E0      		ldi r24,lo8(1)
 395               	.LVL36:
 396               	.L42:
 397               	.LSM70:
 398 0010 9130      		cpi r25,lo8(1)
 399 0012 01F4      		brne .L43
 400               	.LSM71:
 401 0014 9093 0000 		sts enter.1702,r25
 402 0018 84E6      		ldi r24,lo8(100)
 403               	.LVL37:
 404 001a 0895      		ret
 405               	.LVL38:
 406               	.L43:
 407               	.LSM72:
 408 001c 9450      		subi r25,lo8(-(-4))
 409 001e 9230      		cpi r25,lo8(2)
 410 0020 00F4      		brsh .L45
 411               	.LSM73:
 412 0022 8091 0000 		lds r24,gKeyClickStatus
 413               	.LVL39:
 414 0026 8095      		com r24
 415 0028 8093 0000 		sts gKeyClickStatus,r24
 416 002c 00C0      		rjmp .L46
 417               	.LVL40:
 418               	.L45:
 419               	.LSM74:
 420 002e 8823      		tst r24
 421 0030 01F4      		brne .L46
 422 0032 85E6      		ldi r24,lo8(101)
 423               	.LVL41:
 424 0034 0895      		ret
 425               	.LVL42:
 426               	.L46:
 427               	.LSM75:
 428 0036 8091 0000 		lds r24,gKeyClickStatus
 429               	.LVL43:
 430 003a 8823      		tst r24
 431 003c 01F0      		breq .L47
 432               	.LSM76:
 433 003e 80E0      		ldi r24,lo8(__c.1704)
 434 0040 90E0      		ldi r25,hi8(__c.1704)
 435 0042 00C0      		rjmp .L50
 436               	.L47:
 437               	.LSM77:
 438 0044 80E0      		ldi r24,lo8(__c.1706)
 439 0046 90E0      		ldi r25,hi8(__c.1706)
 440               	.L50:
 441 0048 61E0      		ldi r22,lo8(1)
 442 004a 0E94 0000 		call LCD_puts_f
 443               	.LVL44:
 444               	.LSM78:
 445 004e 81E0      		ldi r24,lo8(1)
 446 0050 60E0      		ldi r22,lo8(0)
 447 0052 0E94 0000 		call LCD_UpdateRequired
 448 0056 85E6      		ldi r24,lo8(101)
 449               	.LSM79:
 450 0058 0895      		ret
 451               	.LFE9:
 453               		.section	.text.AutoPowerShowMin,"ax",@progbits
 455               	AutoPowerShowMin:
 456               	.LFB7:
 457               	.LSM80:
 458 0000 0F93      		push r16
 459 0002 1F93      		push r17
 460               	/* prologue: function */
 461               	/* frame size = 0 */
 462               	.LSM81:
 463 0004 8091 0000 		lds r24,PowerSaveTimeout
 464 0008 0E94 0000 		call CHAR2BCD2
 465 000c 182F      		mov r17,r24
 466               	.LVL45:
 467               	.LSM82:
 468 000e 082F      		mov r16,r24
 469 0010 0295      		swap r16
 470 0012 0F70      		andi r16,lo8(15)
 471               	.LSM83:
 472 0014 80E0      		ldi r24,lo8(0)
 473 0016 6DE4      		ldi r22,lo8(77)
 474 0018 0E94 0000 		call LCD_putc
 475               	.LSM84:
 476 001c 81E0      		ldi r24,lo8(1)
 477 001e 69E4      		ldi r22,lo8(73)
 478 0020 0E94 0000 		call LCD_putc
 479               	.LSM85:
 480 0024 82E0      		ldi r24,lo8(2)
 481 0026 6EE4      		ldi r22,lo8(78)
 482 0028 0E94 0000 		call LCD_putc
 483               	.LSM86:
 484 002c 83E0      		ldi r24,lo8(3)
 485 002e 60E2      		ldi r22,lo8(32)
 486 0030 0E94 0000 		call LCD_putc
 487               	.LSM87:
 488 0034 005D      		subi r16,lo8(-(48))
 489 0036 84E0      		ldi r24,lo8(4)
 490 0038 602F      		mov r22,r16
 491 003a 0E94 0000 		call LCD_putc
 492               	.LSM88:
 493 003e 1F70      		andi r17,lo8(15)
 494 0040 105D      		subi r17,lo8(-(48))
 495 0042 85E0      		ldi r24,lo8(5)
 496 0044 612F      		mov r22,r17
 497 0046 0E94 0000 		call LCD_putc
 498               	.LSM89:
 499 004a 86E0      		ldi r24,lo8(6)
 500 004c 60E0      		ldi r22,lo8(0)
 501 004e 0E94 0000 		call LCD_putc
 502               	.LSM90:
 503 0052 81E0      		ldi r24,lo8(1)
 504 0054 60E0      		ldi r22,lo8(0)
 505 0056 0E94 0000 		call LCD_UpdateRequired
 506               	/* epilogue start */
 507               	.LSM91:
 508 005a 1F91      		pop r17
 509               	.LVL46:
 510 005c 0F91      		pop r16
 511 005e 0895      		ret
 512               	.LFE7:
 514               		.section	.text.AutoPower,"ax",@progbits
 515               	.global	AutoPower
 517               	AutoPower:
 518               	.LFB8:
 519               	.LSM92:
 520               	.LVL47:
 521               	/* prologue: function */
 522               	/* frame size = 0 */
 523 0000 982F      		mov r25,r24
 524               	.LSM93:
 525 0002 8091 0000 		lds r24,enter.1688
 526               	.LVL48:
 527 0006 8823      		tst r24
 528 0008 01F0      		breq .L54
 529               	.LSM94:
 530 000a 1092 0000 		sts enter.1688,__zero_reg__
 531               	.LSM95:
 532 000e 8091 0000 		lds r24,AutoPowerSave
 533 0012 8823      		tst r24
 534 0014 01F4      		brne .L66
 535               	.L55:
 536               	.LSM96:
 537 0016 80E0      		ldi r24,lo8(__c.1689)
 538 0018 90E0      		ldi r25,hi8(__c.1689)
 539 001a 00C0      		rjmp .L64
 540               	.L54:
 541               	.LSM97:
 542 001c 9130      		cpi r25,lo8(1)
 543 001e 01F4      		brne .L57
 544               	.LSM98:
 545 0020 9093 0000 		sts enter.1688,r25
 546 0024 82E6      		ldi r24,lo8(98)
 547 0026 0895      		ret
 548               	.L57:
 549               	.LSM99:
 550 0028 9430      		cpi r25,lo8(4)
 551 002a 01F4      		brne .L58
 552               	.LSM100:
 553 002c 8091 0000 		lds r24,PowerSaveTimeout
 554 0030 8B5F      		subi r24,lo8(-(5))
 555 0032 8093 0000 		sts PowerSaveTimeout,r24
 556               	.LSM101:
 557 0036 8B35      		cpi r24,lo8(91)
 558 0038 00F0      		brlo .L59
 559               	.LSM102:
 560 003a 8AE5      		ldi r24,lo8(90)
 561 003c 8093 0000 		sts PowerSaveTimeout,r24
 562 0040 00C0      		rjmp .L65
 563               	.L59:
 564               	.LSM103:
 565 0042 81E0      		ldi r24,lo8(1)
 566 0044 8093 0000 		sts AutoPowerSave,r24
 567               	.L66:
 568               	.LSM104:
 569 0048 0E94 0000 		call AutoPowerShowMin
 570               	.LVL49:
 571 004c 00C0      		rjmp .L65
 572               	.LVL50:
 573               	.L58:
 574               	.LSM105:
 575 004e 9530      		cpi r25,lo8(5)
 576 0050 01F4      		brne .L65
 577               	.L60:
 578               	.LSM106:
 579 0052 8091 0000 		lds r24,PowerSaveTimeout
 580 0056 8823      		tst r24
 581 0058 01F0      		breq .L61
 582               	.LSM107:
 583 005a 8550      		subi r24,lo8(-(-5))
 584 005c 8093 0000 		sts PowerSaveTimeout,r24
 585               	.L61:
 586               	.LSM108:
 587 0060 8091 0000 		lds r24,PowerSaveTimeout
 588 0064 8530      		cpi r24,lo8(5)
 589 0066 00F4      		brsh .L62
 590               	.LSM109:
 591 0068 1092 0000 		sts AutoPowerSave,__zero_reg__
 592               	.LSM110:
 593 006c 1092 0000 		sts PowerSaveTimeout,__zero_reg__
 594               	.LSM111:
 595 0070 80E0      		ldi r24,lo8(__c.1691)
 596 0072 90E0      		ldi r25,hi8(__c.1691)
 597               	.L64:
 598 0074 61E0      		ldi r22,lo8(1)
 599 0076 0E94 0000 		call LCD_puts_f
 600               	.LVL51:
 601               	.L65:
 602 007a 83E6      		ldi r24,lo8(99)
 603 007c 0895      		ret
 604               	.L62:
 605               	.LSM112:
 606 007e 81E0      		ldi r24,lo8(1)
 607 0080 8093 0000 		sts AutoPowerSave,r24
 608               	.LSM113:
 609 0084 0E94 0000 		call AutoPowerShowMin
 610               	.LVL52:
 611 0088 83E6      		ldi r24,lo8(99)
 612               	.LSM114:
 613 008a 0895      		ret
 614               	.LFE8:
 616               		.section	.text.Initialization,"ax",@progbits
 617               	.global	Initialization
 619               	Initialization:
 620               	.LFB4:
 621               	.LSM115:
 622               	/* prologue: function */
 623               	/* frame size = 0 */
 624               	.LSM116:
 625 0000 0E94 0000 		call OSCCAL_calibration
 626               	.LSM117:
 627 0004 E1E6      		ldi r30,lo8(97)
 628 0006 F0E0      		ldi r31,hi8(97)
 629 0008 90E8      		ldi r25,lo8(-128)
 630 000a 9083      		st Z,r25
 631               	.LSM118:
 632 000c 83E0      		ldi r24,lo8(3)
 633 000e 8083      		st Z,r24
 634               	.LSM119:
 635 0010 90BF      		out 80-32,r25
 636               	.LSM120:
 637 0012 87E0      		ldi r24,lo8(7)
 638 0014 8093 7E00 		sts 126,r24
 639               	.LSM121:
 640 0018 8FE0      		ldi r24,lo8(15)
 641 001a 85B9      		out 37-32,r24
 642               	.LSM122:
 643 001c 80EF      		ldi r24,lo8(-16)
 644 001e 8EB9      		out 46-32,r24
 645               	.LSM123:
 646 0020 259A      		sbi 36-32,5
 647               	.LSM124:
 648 0022 2D9A      		sbi 37-32,5
 649               	.LSM125:
 650 0024 0E94 0000 		call Button_Init
 651               	.LSM126:
 652 0028 0E94 0000 		call RTC_init
 653               	.LSM127:
 654 002c 0E94 0000 		call Timer0_Init
 655               	.LSM128:
 656 0030 8CE0      		ldi r24,lo8(12)
 657 0032 90E0      		ldi r25,hi8(12)
 658 0034 0E94 0000 		call USART_Init
 659               	.LSM129:
 660 0038 0E94 0000 		call DF_SPI_init
 661               	.LSM130:
 662 003c 0E94 0000 		call Read_DF_status
 663               	.LSM131:
 664 0040 289A      		sbi 37-32,0
 665               	.LSM132:
 666 0042 0E94 0000 		call LCD_Init
 667               	/* epilogue start */
 668               	.LSM133:
 669 0046 0895      		ret
 670               	.LFE4:
 672               		.section	.text.main,"ax",@progbits
 673               	.global	main
 675               	main:
 676               	.LFB2:
 677               	.LSM134:
 678               	/* prologue: function */
 679               	/* frame size = 0 */
 680               	.LSM135:
 681 0000 84E1      		ldi r24,lo8(20)
 682 0002 8093 0000 		sts state,r24
 683               	.LSM136:
 684 0006 0E94 0000 		call Initialization
 685               	.LSM137:
 686               	/* #APP */
 687               	 ;  115 "src/main.c" 1
 688 000a 7894      		sei
 689               	 ;  0 "" 2
 690               	/* #NOAPP */
 691 000c 14E1      		ldi r17,lo8(20)
 692 000e D12E      		mov r13,r17
 693               	.LVL53:
 694 0010 C0E0      		ldi r28,lo8(MT_TIME)
 695 0012 D0E0      		ldi r29,hi8(MT_TIME)
 696               	.LVL54:
 697 0014 EE24      		clr r14
 698 0016 FF24      		clr r15
 699               	.LVL55:
 700 0018 00E0      		ldi r16,lo8(0)
 701               	.LVL56:
 702               	.LSM138:
 703 001a BAE0      		ldi r27,lo8(10)
 704 001c BB2E      		mov r11,r27
 705               	.LSM139:
 706 001e A3E0      		ldi r26,lo8(3)
 707 0020 CA2E      		mov r12,r26
 708 0022 00C0      		rjmp .L70
 709               	.LVL57:
 710               	.L86:
 711               	.LSM140:
 712 0024 012F      		mov r16,r17
 713               	.L70:
 714               	.LSM141:
 715 0026 8091 0000 		lds r24,PowerSave
 716 002a 8823      		tst r24
 717 002c 01F0      		breq .+2
 718 002e 00C0      		rjmp .L71
 719               	.LSM142:
 720 0030 2097      		sbiw r28,0
 721 0032 01F0      		breq .L72
 722               	.LSM143:
 723 0034 CE01      		movw r24,r28
 724 0036 61E0      		ldi r22,lo8(1)
 725               	.LVL58:
 726 0038 0E94 0000 		call LCD_puts_f
 727               	.LVL59:
 728               	.LSM144:
 729 003c 80E0      		ldi r24,lo8(0)
 730 003e 0E94 0000 		call LCD_Colon
 731               	.LVL60:
 732               	.L72:
 733               	.LSM145:
 734 0042 0E94 0000 		call getkey
 735               	.LVL61:
 736 0046 682F      		mov r22,r24
 737               	.LVL62:
 738               	.LSM146:
 739 0048 E114      		cp r14,__zero_reg__
 740 004a F104      		cpc r15,__zero_reg__
 741 004c 01F0      		breq .L73
 742               	.LSM147:
 743 004e F701      		movw r30,r14
 744 0050 0995      		icall
 745               	.LVL63:
 746 0052 00C0      		rjmp .L90
 747               	.LVL64:
 748               	.L73:
 749               	.LSM148:
 750 0054 8823      		tst r24
 751 0056 01F0      		breq .L74
 752               	.LVL65:
 753               	.LSM149:
 754 0058 8091 0000 		lds r24,state
 755               	.LVL66:
 756 005c 0E94 0000 		call StateMachine
 757               	.LVL67:
 758               	.L90:
 759 0060 D82E      		mov r13,r24
 760               	.LVL68:
 761               	.L74:
 762               	.LSM150:
 763 0062 8091 0000 		lds r24,state
 764               	.LVL69:
 765 0066 D816      		cp r13,r24
 766 0068 01F0      		breq .L75
 767               	.LSM151:
 768 006a D092 0000 		sts state,r13
 769 006e 40E0      		ldi r20,lo8(0)
 770               	.LVL70:
 771 0070 00C0      		rjmp .L76
 772               	.LVL71:
 773               	.L78:
 774               	.LSM152:
 775 0072 8D15      		cp r24,r13
 776 0074 01F4      		brne .L77
 777               	.LBB5:
 778               	.LSM153:
 779 0076 F901      		movw r30,r18
 780               	.LVL72:
 781 0078 E050      		subi r30,lo8(-(menu_state+1))
 782 007a F040      		sbci r31,hi8(-(menu_state+1))
 783               	.LBE5:
 784               	/* #APP */
 785               	 ;  156 "src/main.c" 1
 786 007c C591      		lpm r28, Z+
 787 007e D491      		lpm r29, Z
 788               		
 789               	 ;  0 "" 2
 790               	/* #NOAPP */
 791               	.LBB6:
 792               	.LSM154:
 793 0080 F901      		movw r30,r18
 794               	.LVL73:
 795 0082 E050      		subi r30,lo8(-(menu_state+3))
 796 0084 F040      		sbci r31,hi8(-(menu_state+3))
 797               	.LBE6:
 798               	/* #APP */
 799               	 ;  159 "src/main.c" 1
 800 0086 E590      		lpm r14, Z+
 801 0088 F490      		lpm r15, Z
 802               		
 803               	 ;  0 "" 2
 804               	/* #NOAPP */
 805 008a 00C0      		rjmp .L71
 806               	.LVL74:
 807               	.L77:
 808               	.LSM155:
 809 008c 4F5F      		subi r20,lo8(-(1))
 810               	.L76:
 811               	.LBB7:
 812 008e 842F      		mov r24,r20
 813               	.LVL75:
 814 0090 90E0      		ldi r25,lo8(0)
 815 0092 9C01      		movw r18,r24
 816 0094 220F      		lsl r18
 817 0096 331F      		rol r19
 818 0098 220F      		lsl r18
 819 009a 331F      		rol r19
 820 009c 280F      		add r18,r24
 821 009e 391F      		adc r19,r25
 822 00a0 F901      		movw r30,r18
 823 00a2 E050      		subi r30,lo8(-(menu_state))
 824 00a4 F040      		sbci r31,hi8(-(menu_state))
 825               	/* #APP */
 826               	 ;  146 "src/main.c" 1
 827 00a6 8491      		lpm r24, Z
 828               		
 829               	 ;  0 "" 2
 830               	.LVL76:
 831               	/* #NOAPP */
 832               	.LBE7:
 833 00a8 8823      		tst r24
 834 00aa 01F4      		brne .L78
 835               	.L75:
 836 00ac C0E0      		ldi r28,lo8(0)
 837 00ae D0E0      		ldi r29,hi8(0)
 838               	.LVL77:
 839               	.L71:
 840               	.LSM156:
 841 00b0 8091 0000 		lds r24,AutoPowerSave
 842               	.LVL78:
 843 00b4 8823      		tst r24
 844 00b6 01F0      		breq .L79
 845               	.LSM157:
 846 00b8 9091 0000 		lds r25,gPowerSaveTimer
 847 00bc 8091 0000 		lds r24,PowerSaveTimeout
 848 00c0 9817      		cp r25,r24
 849 00c2 00F0      		brlo .L79
 850               	.LSM158:
 851 00c4 B092 0000 		sts state,r11
 852               	.LSM159:
 853 00c8 1092 0000 		sts gPowerSaveTimer,__zero_reg__
 854               	.LSM160:
 855 00cc 81E0      		ldi r24,lo8(1)
 856 00ce 8093 0000 		sts PowerSave,r24
 857               	.L79:
 858               	.LSM161:
 859 00d2 1F99      		sbic 35-32,7
 860 00d4 00C0      		rjmp .L80
 861 00d6 1E99      		sbic 35-32,6
 862 00d8 00C0      		rjmp .L80
 863               	.LSM162:
 864 00da 0E94 0000 		call Test
 865               	.LVL79:
 866               	.L80:
 867               	.LSM163:
 868 00de 83B1      		in r24,35-32
 869               	.LSM164:
 870 00e0 1CB1      		in r17,44-32
 871 00e2 1095      		com r17
 872 00e4 1C70      		andi r17,lo8(12)
 873 00e6 8095      		com r24
 874 00e8 807D      		andi r24,lo8(-48)
 875 00ea 182B      		or r17,r24
 876               	.LSM165:
 877 00ec 1017      		cp r17,r16
 878 00ee 01F0      		breq .L81
 879               	.LSM166:
 880 00f0 1092 0000 		sts gAutoPressJoystick,__zero_reg__
 881 00f4 00C0      		rjmp .L82
 882               	.L81:
 883               	.LSM167:
 884 00f6 0023      		tst r16
 885 00f8 01F0      		breq .L82
 886               	.LSM168:
 887 00fa 8091 0000 		lds r24,gAutoPressJoystick
 888 00fe 8130      		cpi r24,lo8(1)
 889 0100 01F4      		brne .L83
 890               	.LSM169:
 891 0102 0E94 0000 		call PinChangeInterrupt
 892               	.LVL80:
 893               	.L83:
 894               	.LSM170:
 895 0106 C092 0000 		sts gAutoPressJoystick,r12
 896               	.L82:
 897               	.LSM171:
 898 010a 8091 0000 		lds r24,gPlaying
 899 010e 8823      		tst r24
 900 0110 01F4      		brne .L84
 901               	.LSM172:
 902 0112 9091 0000 		lds r25,PowerSave
 903 0116 9923      		tst r25
 904 0118 01F0      		breq .L85
 905               	.LSM173:
 906 011a 8091 E400 		lds r24,228
 907 011e 8F77      		andi r24,lo8(127)
 908 0120 8093 E400 		sts 228,r24
 909               	.L85:
 910               	.LSM174:
 911 0124 83B7      		in r24,83-32
 912 0126 817F      		andi r24,lo8(-15)
 913 0128 8660      		ori r24,lo8(6)
 914 012a 83BF      		out 83-32,r24
 915               	.LSM175:
 916 012c 83B7      		in r24,83-32
 917 012e 8160      		ori r24,lo8(1)
 918 0130 83BF      		out 83-32,r24
 919               	/* #APP */
 920               	 ;  219 "src/main.c" 1
 921 0132 8895      		sleep
 922               		
 923               	 ;  0 "" 2
 924               	/* #NOAPP */
 925 0134 83B7      		in r24,83-32
 926 0136 8E7F      		andi r24,lo8(-2)
 927 0138 83BF      		out 83-32,r24
 928               	.LSM176:
 929 013a 9923      		tst r25
 930 013c 01F4      		brne .+2
 931 013e 00C0      		rjmp .L86
 932               	.LSM177:
 933 0140 1E99      		sbic 35-32,6
 934 0142 00C0      		rjmp .L86
 935               	.LSM178:
 936 0144 1092 0000 		sts PowerSave,__zero_reg__
 937 0148 ECEE      		ldi r30,lo8(236)
 938 014a F0E0      		ldi r31,hi8(236)
 939               	.LVL81:
 940               	.L87:
 941               	.LSM179:
 942 014c 1192      		st Z+,__zero_reg__
 943               	.LSM180:
 944 014e 81E0      		ldi r24,hi8(256)
 945 0150 E030      		cpi r30,lo8(256)
 946 0152 F807      		cpc r31,r24
 947 0154 01F4      		brne .L87
 948               	.LSM181:
 949 0156 8091 E400 		lds r24,228
 950 015a 8068      		ori r24,lo8(-128)
 951 015c 8093 E400 		sts 228,r24
 952               	.LSM182:
 953 0160 0E94 0000 		call getkey
 954               	.LVL82:
 955 0164 00C0      		rjmp .L86
 956               	.LVL83:
 957               	.L84:
 958               	.LSM183:
 959 0166 83B7      		in r24,83-32
 960 0168 817F      		andi r24,lo8(-15)
 961 016a 83BF      		out 83-32,r24
 962               	.LSM184:
 963 016c 83B7      		in r24,83-32
 964 016e 8160      		ori r24,lo8(1)
 965 0170 83BF      		out 83-32,r24
 966               	/* #APP */
 967               	 ;  240 "src/main.c" 1
 968 0172 8895      		sleep
 969               		
 970               	 ;  0 "" 2
 971               	/* #NOAPP */
 972 0174 83B7      		in r24,83-32
 973 0176 8E7F      		andi r24,lo8(-2)
 974 0178 83BF      		out 83-32,r24
 975 017a 00C0      		rjmp .L86
 976               	.LFE2:
 978               	.global	MT_AVRBF
 979               		.section	.progmem.data,"a",@progbits
 982               	MT_AVRBF:
 983 0000 00        		.string	""
 984               	.global	MT_TIME
 987               	MT_TIME:
 988 0001 5469 6D65 		.string	"Time"
 988      00
 989               	.global	MT_TIME_CLOCK
 992               	MT_TIME_CLOCK:
 993 0006 436C 6F63 		.string	"Clock"
 993      6B00 
 994               	.global	MT_TIME_CLOCK_ADJUST
 997               	MT_TIME_CLOCK_ADJUST:
 998 000c 4164 6A75 		.string	"Adjust Clock"
 998      7374 2043 
 998      6C6F 636B 
 998      00
 999               	.global	MT_TIME_CLOCKFORMAT_ADJUST
 1002               	MT_TIME_CLOCKFORMAT_ADJUST:
 1003 0019 4368 616E 		.string	"Change Clock Format"
 1003      6765 2043 
 1003      6C6F 636B 
 1003      2046 6F72 
 1003      6D61 7400 
 1004               	.global	MT_TIME_DATE
 1007               	MT_TIME_DATE:
 1008 002d 4461 7465 		.string	"Date"
 1008      00
 1009               	.global	MT_TIME_DATE_ADJUST
 1012               	MT_TIME_DATE_ADJUST:
 1013 0032 4164 6A75 		.string	"Adjust Date"
 1013      7374 2044 
 1013      6174 6500 
 1014               	.global	MT_TIME_DATEFORMAT_ADJUST
 1017               	MT_TIME_DATEFORMAT_ADJUST:
 1018 003e 4368 616E 		.string	"Change Date Format"
 1018      6765 2044 
 1018      6174 6520 
 1018      466F 726D 
 1018      6174 00
 1019               	.global	MT_MUSIC
 1022               	MT_MUSIC:
 1023 0051 4D75 7369 		.string	"Music"
 1023      6300 
 1024               	.global	MT_TEMPERATURE
 1027               	MT_TEMPERATURE:
 1028 0057 5465 6D70 		.string	"Temperature"
 1028      6572 6174 
 1028      7572 6500 
 1029               	.global	MT_VOLTAGE
 1032               	MT_VOLTAGE:
 1033 0063 566F 6C74 		.string	"Voltage"
 1033      6167 6500 
 1034               	.global	MT_LIGHT
 1037               	MT_LIGHT:
 1038 006b 4C69 6768 		.string	"Light"
 1038      7400 
 1039               	.global	MT_OPTIONS
 1042               	MT_OPTIONS:
 1043 0071 4F70 7469 		.string	"Options"
 1043      6F6E 7300 
 1044               	.global	MT_OPTIONS_DISPLAY
 1047               	MT_OPTIONS_DISPLAY:
 1048 0079 4469 7370 		.string	"Display"
 1048      6C61 7900 
 1049               	.global	MT_OPTIONS_DISPLAY_CONTRAST
 1052               	MT_OPTIONS_DISPLAY_CONTRAST:
 1053 0081 4164 6A75 		.string	"Adjust contrast"
 1053      7374 2063 
 1053      6F6E 7472 
 1053      6173 7400 
 1054               	.global	MT_OPTIONS_BOOT
 1057               	MT_OPTIONS_BOOT:
 1058 0091 426F 6F74 		.string	"Bootloader"
 1058      6C6F 6164 
 1058      6572 00
 1059               	.global	MT_OPTIONS_POWER_SAVE
 1062               	MT_OPTIONS_POWER_SAVE:
 1063 009c 506F 7765 		.string	"Power Save Mode"
 1063      7220 5361 
 1063      7665 204D 
 1063      6F64 6500 
 1064               	.global	MT_OPTIONS_AUTO_POWER_SAVE
 1067               	MT_OPTIONS_AUTO_POWER_SAVE:
 1068 00ac 4175 746F 		.string	"Auto Power Save"
 1068      2050 6F77 
 1068      6572 2053 
 1068      6176 6500 
 1069               	.global	MT_OPTIONS_KEYCLICK
 1072               	MT_OPTIONS_KEYCLICK:
 1073 00bc 4B65 7920 		.string	"Key Click"
 1073      436C 6963 
 1073      6B00 
 1074               	.global	menu_nextstate
 1077               	menu_nextstate:
 1078 00c6 14        		.byte	20
 1079 00c7 04        		.byte	4
 1080 00c8 5A        		.byte	90
 1081 00c9 14        		.byte	20
 1082 00ca 02        		.byte	2
 1083 00cb 15        		.byte	21
 1084 00cc 14        		.byte	20
 1085 00cd 05        		.byte	5
 1086 00ce 28        		.byte	40
 1087 00cf 15        		.byte	21
 1088 00d0 04        		.byte	4
 1089 00d1 1B        		.byte	27
 1090 00d2 15        		.byte	21
 1091 00d3 02        		.byte	2
 1092 00d4 16        		.byte	22
 1093 00d5 15        		.byte	21
 1094 00d6 03        		.byte	3
 1095 00d7 14        		.byte	20
 1096 00d8 15        		.byte	21
 1097 00d9 05        		.byte	5
 1098 00da 1B        		.byte	27
 1099 00db 17        		.byte	23
 1100 00dc 04        		.byte	4
 1101 00dd 19        		.byte	25
 1102 00de 17        		.byte	23
 1103 00df 01        		.byte	1
 1104 00e0 18        		.byte	24
 1105 00e1 17        		.byte	23
 1106 00e2 03        		.byte	3
 1107 00e3 16        		.byte	22
 1108 00e4 17        		.byte	23
 1109 00e5 05        		.byte	5
 1110 00e6 19        		.byte	25
 1111 00e7 19        		.byte	25
 1112 00e8 04        		.byte	4
 1113 00e9 17        		.byte	23
 1114 00ea 19        		.byte	25
 1115 00eb 01        		.byte	1
 1116 00ec 24        		.byte	36
 1117 00ed 19        		.byte	25
 1118 00ee 03        		.byte	3
 1119 00ef 16        		.byte	22
 1120 00f0 19        		.byte	25
 1121 00f1 05        		.byte	5
 1122 00f2 17        		.byte	23
 1123 00f3 1B        		.byte	27
 1124 00f4 04        		.byte	4
 1125 00f5 15        		.byte	21
 1126 00f6 1B        		.byte	27
 1127 00f7 02        		.byte	2
 1128 00f8 1C        		.byte	28
 1129 00f9 1B        		.byte	27
 1130 00fa 03        		.byte	3
 1131 00fb 14        		.byte	20
 1132 00fc 1B        		.byte	27
 1133 00fd 05        		.byte	5
 1134 00fe 15        		.byte	21
 1135 00ff 1D        		.byte	29
 1136 0100 04        		.byte	4
 1137 0101 1F        		.byte	31
 1138 0102 1D        		.byte	29
 1139 0103 01        		.byte	1
 1140 0104 1E        		.byte	30
 1141 0105 1D        		.byte	29
 1142 0106 03        		.byte	3
 1143 0107 1C        		.byte	28
 1144 0108 1D        		.byte	29
 1145 0109 05        		.byte	5
 1146 010a 1F        		.byte	31
 1147 010b 1F        		.byte	31
 1148 010c 04        		.byte	4
 1149 010d 1D        		.byte	29
 1150 010e 1F        		.byte	31
 1151 010f 01        		.byte	1
 1152 0110 20        		.byte	32
 1153 0111 1F        		.byte	31
 1154 0112 03        		.byte	3
 1155 0113 1C        		.byte	28
 1156 0114 1F        		.byte	31
 1157 0115 05        		.byte	5
 1158 0116 1D        		.byte	29
 1159 0117 28        		.byte	40
 1160 0118 04        		.byte	4
 1161 0119 14        		.byte	20
 1162 011a 28        		.byte	40
 1163 011b 02        		.byte	2
 1164 011c 2A        		.byte	42
 1165 011d 28        		.byte	40
 1166 011e 05        		.byte	5
 1167 011f 3C        		.byte	60
 1168 0120 29        		.byte	41
 1169 0121 02        		.byte	2
 1170 0122 2A        		.byte	42
 1171 0123 29        		.byte	41
 1172 0124 03        		.byte	3
 1173 0125 28        		.byte	40
 1174 0126 3C        		.byte	60
 1175 0127 04        		.byte	4
 1176 0128 28        		.byte	40
 1177 0129 3C        		.byte	60
 1178 012a 02        		.byte	2
 1179 012b 3D        		.byte	61
 1180 012c 3C        		.byte	60
 1181 012d 05        		.byte	5
 1182 012e 46        		.byte	70
 1183 012f 46        		.byte	70
 1184 0130 04        		.byte	4
 1185 0131 3C        		.byte	60
 1186 0132 46        		.byte	70
 1187 0133 02        		.byte	2
 1188 0134 47        		.byte	71
 1189 0135 46        		.byte	70
 1190 0136 05        		.byte	5
 1191 0137 50        		.byte	80
 1192 0138 50        		.byte	80
 1193 0139 04        		.byte	4
 1194 013a 46        		.byte	70
 1195 013b 50        		.byte	80
 1196 013c 02        		.byte	2
 1197 013d 51        		.byte	81
 1198 013e 50        		.byte	80
 1199 013f 05        		.byte	5
 1200 0140 5A        		.byte	90
 1201 0141 5A        		.byte	90
 1202 0142 04        		.byte	4
 1203 0143 50        		.byte	80
 1204 0144 5A        		.byte	90
 1205 0145 02        		.byte	2
 1206 0146 5B        		.byte	91
 1207 0147 5A        		.byte	90
 1208 0148 05        		.byte	5
 1209 0149 14        		.byte	20
 1210 014a 5B        		.byte	91
 1211 014b 04        		.byte	4
 1212 014c 64        		.byte	100
 1213 014d 5B        		.byte	91
 1214 014e 02        		.byte	2
 1215 014f 5C        		.byte	92
 1216 0150 5B        		.byte	91
 1217 0151 03        		.byte	3
 1218 0152 5A        		.byte	90
 1219 0153 5B        		.byte	91
 1220 0154 05        		.byte	5
 1221 0155 5E        		.byte	94
 1222 0156 5C        		.byte	92
 1223 0157 01        		.byte	1
 1224 0158 5D        		.byte	93
 1225 0159 5C        		.byte	92
 1226 015a 03        		.byte	3
 1227 015b 5B        		.byte	91
 1228 015c 5E        		.byte	94
 1229 015d 04        		.byte	4
 1230 015e 5B        		.byte	91
 1231 015f 5E        		.byte	94
 1232 0160 02        		.byte	2
 1233 0161 5F        		.byte	95
 1234 0162 5E        		.byte	94
 1235 0163 03        		.byte	3
 1236 0164 5A        		.byte	90
 1237 0165 5E        		.byte	94
 1238 0166 05        		.byte	5
 1239 0167 60        		.byte	96
 1240 0168 60        		.byte	96
 1241 0169 04        		.byte	4
 1242 016a 5E        		.byte	94
 1243 016b 60        		.byte	96
 1244 016c 02        		.byte	2
 1245 016d 61        		.byte	97
 1246 016e 60        		.byte	96
 1247 016f 03        		.byte	3
 1248 0170 5A        		.byte	90
 1249 0171 60        		.byte	96
 1250 0172 05        		.byte	5
 1251 0173 62        		.byte	98
 1252 0174 62        		.byte	98
 1253 0175 04        		.byte	4
 1254 0176 60        		.byte	96
 1255 0177 62        		.byte	98
 1256 0178 02        		.byte	2
 1257 0179 63        		.byte	99
 1258 017a 62        		.byte	98
 1259 017b 03        		.byte	3
 1260 017c 5A        		.byte	90
 1261 017d 62        		.byte	98
 1262 017e 05        		.byte	5
 1263 017f 64        		.byte	100
 1264 0180 64        		.byte	100
 1265 0181 04        		.byte	4
 1266 0182 62        		.byte	98
 1267 0183 64        		.byte	100
 1268 0184 02        		.byte	2
 1269 0185 65        		.byte	101
 1270 0186 64        		.byte	100
 1271 0187 03        		.byte	3
 1272 0188 5A        		.byte	90
 1273 0189 64        		.byte	100
 1274 018a 05        		.byte	5
 1275 018b 5B        		.byte	91
 1276 018c 00        		.byte	0
 1277 018d 00        		.byte	0
 1278 018e 00        		.byte	0
 1279               	.global	menu_state
 1282               	menu_state:
 1283 018f 14        		.byte	20
 1284 0190 0000      		.word	MT_TIME
 1285 0192 0000      		.word	0
 1286 0194 15        		.byte	21
 1287 0195 0000      		.word	MT_TIME_CLOCK
 1288 0197 0000      		.word	0
 1289 0199 16        		.byte	22
 1290 019a 0000      		.word	0
 1291 019c 0000      		.word	gs(ShowClock)
 1292 019e 17        		.byte	23
 1293 019f 0000      		.word	MT_TIME_CLOCK_ADJUST
 1294 01a1 0000      		.word	0
 1295 01a3 18        		.byte	24
 1296 01a4 0000      		.word	0
 1297 01a6 0000      		.word	gs(SetClock)
 1298 01a8 19        		.byte	25
 1299 01a9 0000      		.word	MT_TIME_CLOCKFORMAT_ADJUST
 1300 01ab 0000      		.word	0
 1301 01ad 24        		.byte	36
 1302 01ae 0000      		.word	0
 1303 01b0 0000      		.word	gs(SetClockFormat)
 1304 01b2 1B        		.byte	27
 1305 01b3 0000      		.word	MT_TIME_DATE
 1306 01b5 0000      		.word	0
 1307 01b7 1C        		.byte	28
 1308 01b8 0000      		.word	0
 1309 01ba 0000      		.word	gs(ShowDate)
 1310 01bc 1D        		.byte	29
 1311 01bd 0000      		.word	MT_TIME_DATE_ADJUST
 1312 01bf 0000      		.word	0
 1313 01c1 1E        		.byte	30
 1314 01c2 0000      		.word	0
 1315 01c4 0000      		.word	gs(SetDate)
 1316 01c6 1F        		.byte	31
 1317 01c7 0000      		.word	MT_TIME_DATEFORMAT_ADJUST
 1318 01c9 0000      		.word	0
 1319 01cb 20        		.byte	32
 1320 01cc 0000      		.word	0
 1321 01ce 0000      		.word	gs(SetDateFormat)
 1322 01d0 28        		.byte	40
 1323 01d1 0000      		.word	MT_MUSIC
 1324 01d3 0000      		.word	0
 1325 01d5 2A        		.byte	42
 1326 01d6 0000      		.word	0
 1327 01d8 0000      		.word	gs(SelectSound)
 1328 01da 2B        		.byte	43
 1329 01db 0000      		.word	0
 1330 01dd 0000      		.word	gs(Sound)
 1331 01df 3C        		.byte	60
 1332 01e0 0000      		.word	MT_TEMPERATURE
 1333 01e2 0000      		.word	0
 1334 01e4 3D        		.byte	61
 1335 01e5 0000      		.word	0
 1336 01e7 0000      		.word	gs(TemperatureFunc)
 1337 01e9 46        		.byte	70
 1338 01ea 0000      		.word	MT_VOLTAGE
 1339 01ec 0000      		.word	0
 1340 01ee 47        		.byte	71
 1341 01ef 0000      		.word	0
 1342 01f1 0000      		.word	gs(VoltageFunc)
 1343 01f3 50        		.byte	80
 1344 01f4 0000      		.word	MT_LIGHT
 1345 01f6 0000      		.word	0
 1346 01f8 51        		.byte	81
 1347 01f9 0000      		.word	0
 1348 01fb 0000      		.word	gs(LightFunc)
 1349 01fd 5A        		.byte	90
 1350 01fe 0000      		.word	MT_OPTIONS
 1351 0200 0000      		.word	0
 1352 0202 5B        		.byte	91
 1353 0203 0000      		.word	MT_OPTIONS_DISPLAY
 1354 0205 0000      		.word	0
 1355 0207 5C        		.byte	92
 1356 0208 0000      		.word	MT_OPTIONS_DISPLAY_CONTRAST
 1357 020a 0000      		.word	0
 1358 020c 5D        		.byte	93
 1359 020d 0000      		.word	0
 1360 020f 0000      		.word	gs(SetContrast)
 1361 0211 5E        		.byte	94
 1362 0212 0000      		.word	MT_OPTIONS_BOOT
 1363 0214 0000      		.word	0
 1364 0216 5F        		.byte	95
 1365 0217 0000      		.word	0
 1366 0219 0000      		.word	gs(BootFunc)
 1367 021b 60        		.byte	96
 1368 021c 0000      		.word	MT_OPTIONS_POWER_SAVE
 1369 021e 0000      		.word	0
 1370 0220 61        		.byte	97
 1371 0221 0000      		.word	0
 1372 0223 0000      		.word	gs(PowerSaveFunc)
 1373 0225 62        		.byte	98
 1374 0226 0000      		.word	MT_OPTIONS_AUTO_POWER_SAVE
 1375 0228 0000      		.word	0
 1376 022a 63        		.byte	99
 1377 022b 0000      		.word	0
 1378 022d 0000      		.word	gs(AutoPower)
 1379 022f 64        		.byte	100
 1380 0230 0000      		.word	MT_OPTIONS_KEYCLICK
 1381 0232 0000      		.word	0
 1382 0234 65        		.byte	101
 1383 0235 0000      		.word	0
 1384 0237 0000      		.word	gs(KeyClick)
 1385 0239 00        		.byte	0
 1386 023a 0000      		.word	0
 1387 023c 0000      		.word	0
 1388               	.global	PowerSaveTimeout
 1389               		.section	.data.PowerSaveTimeout,"aw",@progbits
 1392               	PowerSaveTimeout:
 1393 0000 1E        		.byte	30
 1394               	.global	AutoPowerSave
 1395               		.section	.data.AutoPowerSave,"aw",@progbits
 1398               	AutoPowerSave:
 1399 0000 01        		.byte	1
 1400               	.global	gKeyClickStatus
 1401               		.section	.bss.gKeyClickStatus,"aw",@nobits
 1404               	gKeyClickStatus:
 1405 0000 00        		.skip 1,0
 1406               	.global	PowerSave
 1407               		.section	.bss.PowerSave,"aw",@nobits
 1410               	PowerSave:
 1411 0000 00        		.skip 1,0
 1412               		.section	.progmem.data
 1415               	__c.1706:
 1416 023e 4F66 6600 		.string	"Off"
 1419               	__c.1704:
 1420 0242 4F6E 00   		.string	"On"
 1421               		.section	.data.enter.1702,"aw",@progbits
 1424               	enter.1702:
 1425 0000 01        		.byte	1
 1426               		.section	.progmem.data
 1429               	__c.1691:
 1430 0245 4F66 6600 		.string	"Off"
 1433               	__c.1689:
 1434 0249 4F66 6600 		.string	"Off"
 1435               		.section	.data.enter.1688,"aw",@progbits
 1438               	enter.1688:
 1439 0000 01        		.byte	1
 1440               		.section	.progmem.data
 1443               	__c.1672:
 1444 024d 5072 6573 		.string	"Press enter to sleep"
 1444      7320 656E 
 1444      7465 7220 
 1444      746F 2073 
 1444      6C65 6570 
 1445               		.section	.data.enter.1671,"aw",@progbits
 1448               	enter.1671:
 1449 0000 01        		.byte	1
 1450               		.section	.progmem.data
 1453               	__c.1662:
 1454 0262 4A75 6D70 		.string	"Jump to bootloader"
 1454      2074 6F20 
 1454      626F 6F74 
 1454      6C6F 6164 
 1454      6572 00
 1455               		.section	.data.enter.1661,"aw",@progbits
 1458               	enter.1661:
 1459 0000 01        		.byte	1
 1460               		.comm state,1,1
 1557               	.Letext0:
DEFINED SYMBOLS
                            *ABS*:00000000 main.c
C:\Users\MainUser\AppData\Local\Temp/ccoqZT7U.s:2      *ABS*:0000003f __SREG__
C:\Users\MainUser\AppData\Local\Temp/ccoqZT7U.s:3      *ABS*:0000003e __SP_H__
C:\Users\MainUser\AppData\Local\Temp/ccoqZT7U.s:4      *ABS*:0000003d __SP_L__
C:\Users\MainUser\AppData\Local\Temp/ccoqZT7U.s:5      *ABS*:00000034 __CCP__
C:\Users\MainUser\AppData\Local\Temp/ccoqZT7U.s:6      *ABS*:00000000 __tmp_reg__
C:\Users\MainUser\AppData\Local\Temp/ccoqZT7U.s:7      *ABS*:00000001 __zero_reg__
C:\Users\MainUser\AppData\Local\Temp/ccoqZT7U.s:19     .text.StateMachine:00000000 StateMachine
C:\Users\MainUser\AppData\Local\Temp/ccoqZT7U.s:1077   .progmem.data:000000c6 menu_nextstate
C:\Users\MainUser\AppData\Local\Temp/ccoqZT7U.s:105    .text.Delay:00000000 Delay
C:\Users\MainUser\AppData\Local\Temp/ccoqZT7U.s:141    .text.OSCCAL_calibration:00000000 OSCCAL_calibration
C:\Users\MainUser\AppData\Local\Temp/ccoqZT7U.s:279    .text.PowerSaveFunc:00000000 PowerSaveFunc
C:\Users\MainUser\AppData\Local\Temp/ccoqZT7U.s:1448   .data.enter.1671:00000000 enter.1671
C:\Users\MainUser\AppData\Local\Temp/ccoqZT7U.s:1443   .progmem.data:0000024d __c.1672
C:\Users\MainUser\AppData\Local\Temp/ccoqZT7U.s:1410   .bss.PowerSave:00000000 PowerSave
C:\Users\MainUser\AppData\Local\Temp/ccoqZT7U.s:330    .text.BootFunc:00000000 BootFunc
C:\Users\MainUser\AppData\Local\Temp/ccoqZT7U.s:1458   .data.enter.1661:00000000 enter.1661
C:\Users\MainUser\AppData\Local\Temp/ccoqZT7U.s:1453   .progmem.data:00000262 __c.1662
C:\Users\MainUser\AppData\Local\Temp/ccoqZT7U.s:380    .text.KeyClick:00000000 KeyClick
C:\Users\MainUser\AppData\Local\Temp/ccoqZT7U.s:1424   .data.enter.1702:00000000 enter.1702
C:\Users\MainUser\AppData\Local\Temp/ccoqZT7U.s:1404   .bss.gKeyClickStatus:00000000 gKeyClickStatus
C:\Users\MainUser\AppData\Local\Temp/ccoqZT7U.s:1419   .progmem.data:00000242 __c.1704
C:\Users\MainUser\AppData\Local\Temp/ccoqZT7U.s:1415   .progmem.data:0000023e __c.1706
C:\Users\MainUser\AppData\Local\Temp/ccoqZT7U.s:455    .text.AutoPowerShowMin:00000000 AutoPowerShowMin
C:\Users\MainUser\AppData\Local\Temp/ccoqZT7U.s:1392   .data.PowerSaveTimeout:00000000 PowerSaveTimeout
C:\Users\MainUser\AppData\Local\Temp/ccoqZT7U.s:517    .text.AutoPower:00000000 AutoPower
C:\Users\MainUser\AppData\Local\Temp/ccoqZT7U.s:1438   .data.enter.1688:00000000 enter.1688
C:\Users\MainUser\AppData\Local\Temp/ccoqZT7U.s:1398   .data.AutoPowerSave:00000000 AutoPowerSave
C:\Users\MainUser\AppData\Local\Temp/ccoqZT7U.s:1433   .progmem.data:00000249 __c.1689
C:\Users\MainUser\AppData\Local\Temp/ccoqZT7U.s:1429   .progmem.data:00000245 __c.1691
C:\Users\MainUser\AppData\Local\Temp/ccoqZT7U.s:619    .text.Initialization:00000000 Initialization
C:\Users\MainUser\AppData\Local\Temp/ccoqZT7U.s:675    .text.main:00000000 main
                            *COM*:00000001 state
C:\Users\MainUser\AppData\Local\Temp/ccoqZT7U.s:987    .progmem.data:00000001 MT_TIME
C:\Users\MainUser\AppData\Local\Temp/ccoqZT7U.s:1282   .progmem.data:0000018f menu_state
C:\Users\MainUser\AppData\Local\Temp/ccoqZT7U.s:982    .progmem.data:00000000 MT_AVRBF
C:\Users\MainUser\AppData\Local\Temp/ccoqZT7U.s:992    .progmem.data:00000006 MT_TIME_CLOCK
C:\Users\MainUser\AppData\Local\Temp/ccoqZT7U.s:997    .progmem.data:0000000c MT_TIME_CLOCK_ADJUST
C:\Users\MainUser\AppData\Local\Temp/ccoqZT7U.s:1002   .progmem.data:00000019 MT_TIME_CLOCKFORMAT_ADJUST
C:\Users\MainUser\AppData\Local\Temp/ccoqZT7U.s:1007   .progmem.data:0000002d MT_TIME_DATE
C:\Users\MainUser\AppData\Local\Temp/ccoqZT7U.s:1012   .progmem.data:00000032 MT_TIME_DATE_ADJUST
C:\Users\MainUser\AppData\Local\Temp/ccoqZT7U.s:1017   .progmem.data:0000003e MT_TIME_DATEFORMAT_ADJUST
C:\Users\MainUser\AppData\Local\Temp/ccoqZT7U.s:1022   .progmem.data:00000051 MT_MUSIC
C:\Users\MainUser\AppData\Local\Temp/ccoqZT7U.s:1027   .progmem.data:00000057 MT_TEMPERATURE
C:\Users\MainUser\AppData\Local\Temp/ccoqZT7U.s:1032   .progmem.data:00000063 MT_VOLTAGE
C:\Users\MainUser\AppData\Local\Temp/ccoqZT7U.s:1037   .progmem.data:0000006b MT_LIGHT
C:\Users\MainUser\AppData\Local\Temp/ccoqZT7U.s:1042   .progmem.data:00000071 MT_OPTIONS
C:\Users\MainUser\AppData\Local\Temp/ccoqZT7U.s:1047   .progmem.data:00000079 MT_OPTIONS_DISPLAY
C:\Users\MainUser\AppData\Local\Temp/ccoqZT7U.s:1052   .progmem.data:00000081 MT_OPTIONS_DISPLAY_CONTRAST
C:\Users\MainUser\AppData\Local\Temp/ccoqZT7U.s:1057   .progmem.data:00000091 MT_OPTIONS_BOOT
C:\Users\MainUser\AppData\Local\Temp/ccoqZT7U.s:1062   .progmem.data:0000009c MT_OPTIONS_POWER_SAVE
C:\Users\MainUser\AppData\Local\Temp/ccoqZT7U.s:1067   .progmem.data:000000ac MT_OPTIONS_AUTO_POWER_SAVE
C:\Users\MainUser\AppData\Local\Temp/ccoqZT7U.s:1072   .progmem.data:000000bc MT_OPTIONS_KEYCLICK

UNDEFINED SYMBOLS
LCD_puts_f
LCD_UpdateRequired
CHAR2BCD2
LCD_putc
Button_Init
RTC_init
Timer0_Init
USART_Init
DF_SPI_init
Read_DF_status
LCD_Init
LCD_Colon
getkey
gPowerSaveTimer
Test
gAutoPressJoystick
PinChangeInterrupt
gPlaying
ShowClock
SetClock
SetClockFormat
ShowDate
SetDate
SetDateFormat
SelectSound
Sound
TemperatureFunc
VoltageFunc
LightFunc
SetContrast
__do_copy_data
__do_clear_bss
