   1               		.file	"RTC.c"
   2               	__SREG__ = 0x3f
   3               	__SP_H__ = 0x3e
   4               	__SP_L__ = 0x3d
   5               	__CCP__  = 0x34
   6               	__tmp_reg__ = 0
   7               	__zero_reg__ = 1
  15               	.Ltext0:
  16               		.section	.text.__vector_5,"ax",@progbits
  17               	.global	__vector_5
  19               	__vector_5:
  20               	.LFB9:
  21               	.LSM0:
  22 0000 1F92      		push __zero_reg__
  23 0002 0F92      		push r0
  24 0004 0FB6      		in r0,__SREG__
  25 0006 0F92      		push r0
  26 0008 1124      		clr __zero_reg__
  27 000a 2F93      		push r18
  28 000c 3F93      		push r19
  29 000e 4F93      		push r20
  30 0010 5F93      		push r21
  31 0012 6F93      		push r22
  32 0014 7F93      		push r23
  33 0016 8F93      		push r24
  34 0018 9F93      		push r25
  35 001a AF93      		push r26
  36 001c BF93      		push r27
  37 001e EF93      		push r30
  38 0020 FF93      		push r31
  39               	/* prologue: Signal */
  40               	/* frame size = 0 */
  41               	.LSM1:
  42 0022 8091 0000 		lds r24,gSECOND
  43 0026 8F5F      		subi r24,lo8(-(1))
  44 0028 8093 0000 		sts gSECOND,r24
  45               	.LSM2:
  46 002c 8091 0000 		lds r24,gSECOND
  47 0030 8C33      		cpi r24,lo8(60)
  48 0032 01F0      		breq .+2
  49 0034 00C0      		rjmp .L8
  50               	.LSM3:
  51 0036 1092 0000 		sts gSECOND,__zero_reg__
  52               	.LSM4:
  53 003a 8091 0000 		lds r24,gMINUTE
  54 003e 8F5F      		subi r24,lo8(-(1))
  55 0040 8093 0000 		sts gMINUTE,r24
  56               	.LSM5:
  57 0044 8091 0000 		lds r24,gPowerSaveTimer
  58 0048 8F5F      		subi r24,lo8(-(1))
  59 004a 8093 0000 		sts gPowerSaveTimer,r24
  60               	.LSM6:
  61 004e 8091 0000 		lds r24,gMINUTE
  62 0052 8C33      		cpi r24,lo8(60)
  63 0054 00F4      		brsh .+2
  64 0056 00C0      		rjmp .L8
  65               	.LSM7:
  66 0058 1092 0000 		sts gMINUTE,__zero_reg__
  67               	.LSM8:
  68 005c 8091 0000 		lds r24,gHOUR
  69 0060 8F5F      		subi r24,lo8(-(1))
  70 0062 8093 0000 		sts gHOUR,r24
  71               	.LSM9:
  72 0066 8091 0000 		lds r24,gHOUR
  73 006a 8831      		cpi r24,lo8(24)
  74 006c 00F4      		brsh .+2
  75 006e 00C0      		rjmp .L8
  76               	.LSM10:
  77 0070 1092 0000 		sts gHOUR,__zero_reg__
  78               	.LSM11:
  79 0074 8091 0000 		lds r24,gDAY
  80 0078 8F5F      		subi r24,lo8(-(1))
  81 007a 8093 0000 		sts gDAY,r24
  82               	.LSM12:
  83 007e 8091 0000 		lds r24,gMONTH
  84 0082 8230      		cpi r24,lo8(2)
  85 0084 01F4      		brne .L3
  86               	.LSM13:
  87 0086 8091 0000 		lds r24,gYEAR
  88 008a 9091 0000 		lds r25,(gYEAR)+1
  89 008e 8370      		andi r24,lo8(3)
  90 0090 9070      		andi r25,hi8(3)
  91 0092 892B      		or r24,r25
  92 0094 01F4      		brne .L3
  93               	.LSM14:
  94 0096 8091 0000 		lds r24,gYEAR
  95 009a 9091 0000 		lds r25,(gYEAR)+1
  96 009e 64E6      		ldi r22,lo8(100)
  97 00a0 70E0      		ldi r23,hi8(100)
  98 00a2 0E94 0000 		call __udivmodhi4
  99 00a6 892B      		or r24,r25
 100 00a8 01F4      		brne .L5
 101               	.LSM15:
 102 00aa 8091 0000 		lds r24,gYEAR
 103 00ae 9091 0000 		lds r25,(gYEAR)+1
 104 00b2 60E9      		ldi r22,lo8(400)
 105 00b4 71E0      		ldi r23,hi8(400)
 106 00b6 0E94 0000 		call __udivmodhi4
 107 00ba 892B      		or r24,r25
 108 00bc 01F4      		brne .L3
 109               	.L5:
 110               	.LSM16:
 111 00be 81E0      		ldi r24,lo8(1)
 112 00c0 8093 0000 		sts LeapMonth.1664,r24
 113 00c4 00C0      		rjmp .L7
 114               	.L3:
 115               	.LSM17:
 116 00c6 1092 0000 		sts LeapMonth.1664,__zero_reg__
 117               	.L7:
 118               	.LSM18:
 119 00ca 2091 0000 		lds r18,gDAY
 120 00ce E091 0000 		lds r30,gMONTH
 121 00d2 30E0      		ldi r19,lo8(0)
 122 00d4 F0E0      		ldi r31,lo8(0)
 123 00d6 E050      		subi r30,lo8(-(MonthLength))
 124 00d8 F040      		sbci r31,hi8(-(MonthLength))
 125 00da 4081      		ld r20,Z
 126 00dc 8091 0000 		lds r24,LeapMonth.1664
 127 00e0 90E0      		ldi r25,lo8(0)
 128 00e2 840F      		add r24,r20
 129 00e4 911D      		adc r25,__zero_reg__
 130 00e6 8217      		cp r24,r18
 131 00e8 9307      		cpc r25,r19
 132 00ea 04F4      		brge .L8
 133               	.LSM19:
 134 00ec 91E0      		ldi r25,lo8(1)
 135 00ee 9093 0000 		sts gDAY,r25
 136               	.LSM20:
 137 00f2 8091 0000 		lds r24,gMONTH
 138 00f6 8F5F      		subi r24,lo8(-(1))
 139 00f8 8093 0000 		sts gMONTH,r24
 140               	.LSM21:
 141 00fc 8091 0000 		lds r24,gMONTH
 142 0100 8D30      		cpi r24,lo8(13)
 143 0102 00F0      		brlo .L8
 144               	.LSM22:
 145 0104 9093 0000 		sts gMONTH,r25
 146               	.LSM23:
 147 0108 8091 0000 		lds r24,gYEAR
 148 010c 9091 0000 		lds r25,(gYEAR)+1
 149 0110 0196      		adiw r24,1
 150 0112 9093 0000 		sts (gYEAR)+1,r25
 151 0116 8093 0000 		sts gYEAR,r24
 152               	.L8:
 153               	/* epilogue start */
 154               	.LSM24:
 155 011a FF91      		pop r31
 156 011c EF91      		pop r30
 157 011e BF91      		pop r27
 158 0120 AF91      		pop r26
 159 0122 9F91      		pop r25
 160 0124 8F91      		pop r24
 161 0126 7F91      		pop r23
 162 0128 6F91      		pop r22
 163 012a 5F91      		pop r21
 164 012c 4F91      		pop r20
 165 012e 3F91      		pop r19
 166 0130 2F91      		pop r18
 167 0132 0F90      		pop r0
 168 0134 0FBE      		out __SREG__,r0
 169 0136 0F90      		pop r0
 170 0138 1F90      		pop __zero_reg__
 171 013a 1895      		reti
 172               	.LFE9:
 174               		.section	.text.SetDateFormat,"ax",@progbits
 175               	.global	SetDateFormat
 177               	SetDateFormat:
 178               	.LFB8:
 179               	.LSM25:
 180               	.LVL0:
 181 0000 1F93      		push r17
 182               	/* prologue: function */
 183               	/* frame size = 0 */
 184 0002 182F      		mov r17,r24
 185               	.LSM26:
 186 0004 8091 0000 		lds r24,enter.1651
 187               	.LVL1:
 188 0008 8823      		tst r24
 189 000a 01F0      		breq .L10
 190               	.LSM27:
 191 000c 1092 0000 		sts enter.1651,__zero_reg__
 192               	.LSM28:
 193 0010 E091 0000 		lds r30,dateformat
 194 0014 F0E0      		ldi r31,lo8(0)
 195 0016 EE0F      		lsl r30
 196 0018 FF1F      		rol r31
 197 001a E050      		subi r30,lo8(-(DATEFORMAT_TEXT))
 198 001c F040      		sbci r31,hi8(-(DATEFORMAT_TEXT))
 199 001e 8081      		ld r24,Z
 200 0020 9181      		ldd r25,Z+1
 201 0022 61E0      		ldi r22,lo8(1)
 202 0024 0E94 0000 		call LCD_puts_f
 203               	.L10:
 204               	.LSM29:
 205 0028 1430      		cpi r17,lo8(4)
 206 002a 01F4      		brne .L11
 207               	.LSM30:
 208 002c 8091 0000 		lds r24,dateformat
 209 0030 8230      		cpi r24,lo8(2)
 210 0032 00F0      		brlo .L12
 211               	.LSM31:
 212 0034 1092 0000 		sts dateformat,__zero_reg__
 213 0038 00C0      		rjmp .L21
 214               	.L12:
 215               	.LSM32:
 216 003a 8F5F      		subi r24,lo8(-(1))
 217 003c 00C0      		rjmp .L20
 218               	.L11:
 219               	.LSM33:
 220 003e 1530      		cpi r17,lo8(5)
 221 0040 01F4      		brne .L15
 222               	.LSM34:
 223 0042 8091 0000 		lds r24,dateformat
 224 0046 8823      		tst r24
 225 0048 01F4      		brne .L16
 226               	.LSM35:
 227 004a 82E0      		ldi r24,lo8(2)
 228 004c 00C0      		rjmp .L20
 229               	.L16:
 230               	.LSM36:
 231 004e 8150      		subi r24,lo8(-(-1))
 232               	.L20:
 233 0050 8093 0000 		sts dateformat,r24
 234               	.L21:
 235               	.LSM37:
 236 0054 E091 0000 		lds r30,dateformat
 237 0058 F0E0      		ldi r31,lo8(0)
 238 005a EE0F      		lsl r30
 239 005c FF1F      		rol r31
 240 005e E050      		subi r30,lo8(-(DATEFORMAT_TEXT))
 241 0060 F040      		sbci r31,hi8(-(DATEFORMAT_TEXT))
 242 0062 8081      		ld r24,Z
 243 0064 9181      		ldd r25,Z+1
 244 0066 61E0      		ldi r22,lo8(1)
 245 0068 0E94 0000 		call LCD_puts_f
 246 006c 00C0      		rjmp .L22
 247               	.L15:
 248               	.LSM38:
 249 006e 1130      		cpi r17,lo8(1)
 250 0070 01F0      		breq .L18
 251               	.L22:
 252 0072 80E2      		ldi r24,lo8(32)
 253 0074 00C0      		rjmp .L14
 254               	.L18:
 255               	.LSM39:
 256 0076 1093 0000 		sts enter.1651,r17
 257 007a 8CE1      		ldi r24,lo8(28)
 258               	.L14:
 259               	/* epilogue start */
 260               	.LSM40:
 261 007c 1F91      		pop r17
 262               	.LVL2:
 263 007e 0895      		ret
 264               	.LFE8:
 266               		.section	.text.SetClockFormat,"ax",@progbits
 267               	.global	SetClockFormat
 269               	SetClockFormat:
 270               	.LFB5:
 271               	.LSM41:
 272               	.LVL3:
 273 0000 1F93      		push r17
 274               	/* prologue: function */
 275               	/* frame size = 0 */
 276 0002 182F      		mov r17,r24
 277               	.LSM42:
 278 0004 8091 0000 		lds r24,enter.1535
 279               	.LVL4:
 280 0008 8823      		tst r24
 281 000a 01F0      		breq .L24
 282               	.LSM43:
 283 000c 1092 0000 		sts enter.1535,__zero_reg__
 284               	.LSM44:
 285 0010 8091 0000 		lds r24,clockformat
 286 0014 8130      		cpi r24,lo8(1)
 287 0016 01F4      		brne .L25
 288               	.LSM45:
 289 0018 80E0      		ldi r24,lo8(__c.1536)
 290 001a 90E0      		ldi r25,hi8(__c.1536)
 291 001c 00C0      		rjmp .L33
 292               	.L25:
 293               	.LSM46:
 294 001e 80E0      		ldi r24,lo8(__c.1538)
 295 0020 90E0      		ldi r25,hi8(__c.1538)
 296               	.L33:
 297 0022 61E0      		ldi r22,lo8(1)
 298 0024 0E94 0000 		call LCD_puts_f
 299               	.L24:
 300               	.LSM47:
 301 0028 1430      		cpi r17,lo8(4)
 302 002a 01F4      		brne .L26
 303               	.LSM48:
 304 002c 8091 0000 		lds r24,clockformat
 305 0030 8130      		cpi r24,lo8(1)
 306 0032 01F4      		brne .L27
 307               	.LSM49:
 308 0034 1092 0000 		sts clockformat,__zero_reg__
 309               	.LSM50:
 310 0038 80E0      		ldi r24,lo8(__c.1540)
 311 003a 90E0      		ldi r25,hi8(__c.1540)
 312 003c 00C0      		rjmp .L34
 313               	.L27:
 314               	.LSM51:
 315 003e 81E0      		ldi r24,lo8(1)
 316 0040 8093 0000 		sts clockformat,r24
 317               	.LSM52:
 318 0044 80E0      		ldi r24,lo8(__c.1542)
 319 0046 90E0      		ldi r25,hi8(__c.1542)
 320 0048 00C0      		rjmp .L34
 321               	.L26:
 322               	.LSM53:
 323 004a 1530      		cpi r17,lo8(5)
 324 004c 01F4      		brne .L29
 325               	.LSM54:
 326 004e 8091 0000 		lds r24,clockformat
 327 0052 8823      		tst r24
 328 0054 01F4      		brne .L30
 329               	.LSM55:
 330 0056 81E0      		ldi r24,lo8(1)
 331 0058 8093 0000 		sts clockformat,r24
 332               	.LSM56:
 333 005c 80E0      		ldi r24,lo8(__c.1544)
 334 005e 90E0      		ldi r25,hi8(__c.1544)
 335 0060 00C0      		rjmp .L34
 336               	.L30:
 337               	.LSM57:
 338 0062 1092 0000 		sts clockformat,__zero_reg__
 339               	.LSM58:
 340 0066 80E0      		ldi r24,lo8(__c.1546)
 341 0068 90E0      		ldi r25,hi8(__c.1546)
 342               	.L34:
 343 006a 61E0      		ldi r22,lo8(1)
 344 006c 0E94 0000 		call LCD_puts_f
 345               	.L35:
 346 0070 84E2      		ldi r24,lo8(36)
 347 0072 00C0      		rjmp .L28
 348               	.L29:
 349               	.LSM59:
 350 0074 1130      		cpi r17,lo8(1)
 351 0076 01F4      		brne .L35
 352               	.L31:
 353               	.LSM60:
 354 0078 1093 0000 		sts enter.1535,r17
 355 007c 86E1      		ldi r24,lo8(22)
 356               	.L28:
 357               	/* epilogue start */
 358               	.LSM61:
 359 007e 1F91      		pop r17
 360               	.LVL5:
 361 0080 0895      		ret
 362               	.LFE5:
 364               		.section	.text.SetDate,"ax",@progbits
 365               	.global	SetDate
 367               	SetDate:
 368               	.LFB7:
 369               	.LSM62:
 370               	.LVL6:
 371 0000 FF92      		push r15
 372 0002 0F93      		push r16
 373 0004 1F93      		push r17
 374               	/* prologue: function */
 375               	/* frame size = 0 */
 376 0006 F82E      		mov r15,r24
 377               	.LSM63:
 378 0008 8091 0000 		lds r24,enter_function.1603
 379               	.LVL7:
 380 000c 8823      		tst r24
 381 000e 01F0      		breq .L37
 382               	.LSM64:
 383 0010 8091 0000 		lds r24,gYEAR
 384 0014 9091 0000 		lds r25,(gYEAR)+1
 385 0018 8093 0000 		sts date.1604,r24
 386               	.LSM65:
 387 001c 8091 0000 		lds r24,gMONTH
 388 0020 8093 0000 		sts date.1604+1,r24
 389               	.LSM66:
 390 0024 8091 0000 		lds r24,gDAY
 391 0028 8093 0000 		sts date.1604+2,r24
 392               	.L37:
 393               	.LSM67:
 394 002c 8091 0000 		lds r24,mode.1605
 395 0030 8823      		tst r24
 396 0032 01F4      		brne .L38
 397               	.LSM68:
 398 0034 8091 0000 		lds r24,date.1604
 399 0038 0E94 0000 		call CHAR2BCD2
 400 003c 182F      		mov r17,r24
 401               	.LVL8:
 402               	.LSM69:
 403 003e 082F      		mov r16,r24
 404 0040 0295      		swap r16
 405 0042 0F70      		andi r16,lo8(15)
 406               	.LSM70:
 407 0044 80E0      		ldi r24,lo8(0)
 408 0046 60E2      		ldi r22,lo8(32)
 409 0048 0E94 0000 		call LCD_putc
 410               	.LSM71:
 411 004c 81E0      		ldi r24,lo8(1)
 412 004e 60E2      		ldi r22,lo8(32)
 413 0050 0E94 0000 		call LCD_putc
 414               	.LSM72:
 415 0054 82E0      		ldi r24,lo8(2)
 416 0056 69E5      		ldi r22,lo8(89)
 417 0058 0E94 0000 		call LCD_putc
 418               	.LSM73:
 419 005c 83E0      		ldi r24,lo8(3)
 420 005e 69E5      		ldi r22,lo8(89)
 421 0060 00C0      		rjmp .L60
 422               	.LVL9:
 423               	.L38:
 424               	.LSM74:
 425 0062 8130      		cpi r24,lo8(1)
 426 0064 01F4      		brne .L40
 427               	.LSM75:
 428 0066 8091 0000 		lds r24,date.1604+1
 429 006a 0E94 0000 		call CHAR2BCD2
 430 006e 182F      		mov r17,r24
 431               	.LVL10:
 432               	.LSM76:
 433 0070 082F      		mov r16,r24
 434 0072 0295      		swap r16
 435 0074 0F70      		andi r16,lo8(15)
 436               	.LSM77:
 437 0076 80E0      		ldi r24,lo8(0)
 438 0078 60E2      		ldi r22,lo8(32)
 439 007a 0E94 0000 		call LCD_putc
 440               	.LSM78:
 441 007e 81E0      		ldi r24,lo8(1)
 442 0080 60E2      		ldi r22,lo8(32)
 443 0082 0E94 0000 		call LCD_putc
 444               	.LSM79:
 445 0086 82E0      		ldi r24,lo8(2)
 446 0088 6DE4      		ldi r22,lo8(77)
 447 008a 0E94 0000 		call LCD_putc
 448               	.LSM80:
 449 008e 83E0      		ldi r24,lo8(3)
 450 0090 6DE4      		ldi r22,lo8(77)
 451 0092 00C0      		rjmp .L60
 452               	.LVL11:
 453               	.L40:
 454               	.LSM81:
 455 0094 8230      		cpi r24,lo8(2)
 456 0096 01F4      		brne .L39
 457               	.LSM82:
 458 0098 8091 0000 		lds r24,date.1604+2
 459 009c 0E94 0000 		call CHAR2BCD2
 460 00a0 182F      		mov r17,r24
 461               	.LVL12:
 462               	.LSM83:
 463 00a2 082F      		mov r16,r24
 464 00a4 0295      		swap r16
 465 00a6 0F70      		andi r16,lo8(15)
 466               	.LSM84:
 467 00a8 80E0      		ldi r24,lo8(0)
 468 00aa 60E2      		ldi r22,lo8(32)
 469 00ac 0E94 0000 		call LCD_putc
 470               	.LSM85:
 471 00b0 81E0      		ldi r24,lo8(1)
 472 00b2 60E2      		ldi r22,lo8(32)
 473 00b4 0E94 0000 		call LCD_putc
 474               	.LSM86:
 475 00b8 82E0      		ldi r24,lo8(2)
 476 00ba 64E4      		ldi r22,lo8(68)
 477 00bc 0E94 0000 		call LCD_putc
 478               	.LSM87:
 479 00c0 83E0      		ldi r24,lo8(3)
 480 00c2 64E4      		ldi r22,lo8(68)
 481               	.LVL13:
 482               	.L60:
 483 00c4 0E94 0000 		call LCD_putc
 484               	.LSM88:
 485 00c8 005D      		subi r16,lo8(-(48))
 486 00ca 84E0      		ldi r24,lo8(4)
 487 00cc 602F      		mov r22,r16
 488 00ce 0E94 0000 		call LCD_putc
 489               	.LSM89:
 490 00d2 1F70      		andi r17,lo8(15)
 491               	.LVL14:
 492 00d4 105D      		subi r17,lo8(-(48))
 493 00d6 85E0      		ldi r24,lo8(5)
 494 00d8 612F      		mov r22,r17
 495 00da 0E94 0000 		call LCD_putc
 496               	.L39:
 497               	.LSM90:
 498 00de 86E0      		ldi r24,lo8(6)
 499 00e0 60E0      		ldi r22,lo8(0)
 500 00e2 0E94 0000 		call LCD_putc
 501               	.LSM91:
 502 00e6 80E0      		ldi r24,lo8(0)
 503 00e8 0E94 0000 		call LCD_Colon
 504               	.LSM92:
 505 00ec FF20      		tst r15
 506 00ee 01F0      		breq .L41
 507               	.LSM93:
 508 00f0 0E94 0000 		call LCD_FlashReset
 509               	.L41:
 510               	.LSM94:
 511 00f4 81E0      		ldi r24,lo8(1)
 512 00f6 60E0      		ldi r22,lo8(0)
 513 00f8 0E94 0000 		call LCD_UpdateRequired
 514               	.LSM95:
 515 00fc 81E0      		ldi r24,lo8(1)
 516 00fe 8093 0000 		sts enter_function.1603,r24
 517               	.LSM96:
 518 0102 84E0      		ldi r24,lo8(4)
 519 0104 F816      		cp r15,r24
 520 0106 01F4      		brne .L42
 521               	.LSM97:
 522 0108 E091 0000 		lds r30,mode.1605
 523 010c F0E0      		ldi r31,lo8(0)
 524 010e E050      		subi r30,lo8(-(date.1604))
 525 0110 F040      		sbci r31,hi8(-(date.1604))
 526 0112 8081      		ld r24,Z
 527 0114 8F5F      		subi r24,lo8(-(1))
 528 0116 00C0      		rjmp .L62
 529               	.L42:
 530               	.LSM98:
 531 0118 85E0      		ldi r24,lo8(5)
 532 011a F816      		cp r15,r24
 533 011c 01F4      		brne .L44
 534               	.LSM99:
 535 011e E091 0000 		lds r30,mode.1605
 536 0122 F0E0      		ldi r31,lo8(0)
 537 0124 E050      		subi r30,lo8(-(date.1604))
 538 0126 F040      		sbci r31,hi8(-(date.1604))
 539 0128 8081      		ld r24,Z
 540 012a 8150      		subi r24,lo8(-(-1))
 541               	.L62:
 542 012c 8083      		st Z,r24
 543 012e 00C0      		rjmp .L43
 544               	.L44:
 545               	.LSM100:
 546 0130 83E0      		ldi r24,lo8(3)
 547 0132 F816      		cp r15,r24
 548 0134 01F4      		brne .L45
 549               	.LSM101:
 550 0136 8091 0000 		lds r24,mode.1605
 551 013a 8823      		tst r24
 552 013c 01F4      		brne .L46
 553               	.LSM102:
 554 013e 82E0      		ldi r24,lo8(2)
 555 0140 00C0      		rjmp .L61
 556               	.L46:
 557               	.LSM103:
 558 0142 8150      		subi r24,lo8(-(-1))
 559 0144 00C0      		rjmp .L61
 560               	.L45:
 561               	.LSM104:
 562 0146 82E0      		ldi r24,lo8(2)
 563 0148 F816      		cp r15,r24
 564 014a 01F4      		brne .L47
 565               	.LSM105:
 566 014c 8091 0000 		lds r24,mode.1605
 567 0150 8230      		cpi r24,lo8(2)
 568 0152 01F4      		brne .L48
 569               	.LSM106:
 570 0154 1092 0000 		sts mode.1605,__zero_reg__
 571 0158 00C0      		rjmp .L43
 572               	.L48:
 573               	.LSM107:
 574 015a 8F5F      		subi r24,lo8(-(1))
 575               	.L61:
 576 015c 8093 0000 		sts mode.1605,r24
 577 0160 00C0      		rjmp .L43
 578               	.L47:
 579               	.LSM108:
 580 0162 81E0      		ldi r24,lo8(1)
 581 0164 F816      		cp r15,r24
 582 0166 01F4      		brne .L43
 583               	.LSM109:
 584               	/* #APP */
 585               	 ;  547 "src/drv/RTC.c" 1
 586 0168 F894      		cli
 587               	 ;  0 "" 2
 588               	.LSM110:
 589               	/* #NOAPP */
 590 016a 8091 0000 		lds r24,date.1604
 591 016e 90E0      		ldi r25,lo8(0)
 592 0170 9093 0000 		sts (gYEAR)+1,r25
 593 0174 8093 0000 		sts gYEAR,r24
 594               	.LSM111:
 595 0178 8091 0000 		lds r24,date.1604+1
 596 017c 8093 0000 		sts gMONTH,r24
 597               	.LSM112:
 598 0180 8091 0000 		lds r24,date.1604+2
 599 0184 8093 0000 		sts gDAY,r24
 600               	.LSM113:
 601               	/* #APP */
 602               	 ;  551 "src/drv/RTC.c" 1
 603 0188 7894      		sei
 604               	 ;  0 "" 2
 605               	.LSM114:
 606               	/* #NOAPP */
 607 018a 1092 0000 		sts mode.1605,__zero_reg__
 608 018e 8CE1      		ldi r24,lo8(28)
 609 0190 00C0      		rjmp .L49
 610               	.L43:
 611               	.LSM115:
 612 0192 8091 0000 		lds r24,date.1604
 613 0196 8F3F      		cpi r24,lo8(-1)
 614 0198 01F4      		brne .L50
 615               	.LSM116:
 616 019a 83E6      		ldi r24,lo8(99)
 617 019c 8093 0000 		sts date.1604,r24
 618               	.L50:
 619               	.LSM117:
 620 01a0 8091 0000 		lds r24,date.1604
 621 01a4 8436      		cpi r24,lo8(100)
 622 01a6 00F0      		brlo .L51
 623               	.LSM118:
 624 01a8 1092 0000 		sts date.1604,__zero_reg__
 625               	.L51:
 626               	.LSM119:
 627 01ac 8091 0000 		lds r24,date.1604+1
 628 01b0 8823      		tst r24
 629 01b2 01F4      		brne .L52
 630               	.LSM120:
 631 01b4 8CE0      		ldi r24,lo8(12)
 632 01b6 8093 0000 		sts date.1604+1,r24
 633               	.L52:
 634               	.LSM121:
 635 01ba 8091 0000 		lds r24,date.1604+1
 636 01be 8D30      		cpi r24,lo8(13)
 637 01c0 00F0      		brlo .L53
 638               	.LSM122:
 639 01c2 81E0      		ldi r24,lo8(1)
 640 01c4 8093 0000 		sts date.1604+1,r24
 641               	.L53:
 642               	.LSM123:
 643 01c8 8091 0000 		lds r24,gMONTH
 644 01cc 8230      		cpi r24,lo8(2)
 645 01ce 01F4      		brne .L54
 646               	.LSM124:
 647 01d0 8091 0000 		lds r24,gYEAR
 648 01d4 9091 0000 		lds r25,(gYEAR)+1
 649 01d8 8370      		andi r24,lo8(3)
 650 01da 9070      		andi r25,hi8(3)
 651 01dc 892B      		or r24,r25
 652 01de 01F4      		brne .L54
 653               	.LSM125:
 654 01e0 8091 0000 		lds r24,gYEAR
 655 01e4 9091 0000 		lds r25,(gYEAR)+1
 656 01e8 64E6      		ldi r22,lo8(100)
 657 01ea 70E0      		ldi r23,hi8(100)
 658 01ec 0E94 0000 		call __udivmodhi4
 659 01f0 892B      		or r24,r25
 660 01f2 01F4      		brne .L55
 661               	.LSM126:
 662 01f4 8091 0000 		lds r24,gYEAR
 663 01f8 9091 0000 		lds r25,(gYEAR)+1
 664 01fc 60E9      		ldi r22,lo8(400)
 665 01fe 71E0      		ldi r23,hi8(400)
 666 0200 0E94 0000 		call __udivmodhi4
 667 0204 892B      		or r24,r25
 668 0206 01F0      		breq .L55
 669               	.L54:
 670               	.LSM127:
 671 0208 E091 0000 		lds r30,date.1604+1
 672 020c F0E0      		ldi r31,lo8(0)
 673 020e E050      		subi r30,lo8(-(MonthLength))
 674 0210 F040      		sbci r31,hi8(-(MonthLength))
 675 0212 E081      		ld r30,Z
 676               	.LVL15:
 677 0214 00C0      		rjmp .L56
 678               	.LVL16:
 679               	.L55:
 680 0216 EDE1      		ldi r30,lo8(29)
 681               	.LVL17:
 682               	.L56:
 683               	.LSM128:
 684 0218 8091 0000 		lds r24,date.1604+2
 685 021c 8823      		tst r24
 686 021e 01F4      		brne .L57
 687               	.LSM129:
 688 0220 E093 0000 		sts date.1604+2,r30
 689               	.L57:
 690               	.LSM130:
 691 0224 8091 0000 		lds r24,date.1604+2
 692 0228 E817      		cp r30,r24
 693 022a 00F4      		brsh .L58
 694               	.LSM131:
 695 022c 81E0      		ldi r24,lo8(1)
 696 022e 8093 0000 		sts date.1604+2,r24
 697               	.L58:
 698               	.LSM132:
 699 0232 1092 0000 		sts enter_function.1603,__zero_reg__
 700 0236 8EE1      		ldi r24,lo8(30)
 701               	.L49:
 702               	/* epilogue start */
 703               	.LSM133:
 704 0238 1F91      		pop r17
 705               	.LVL18:
 706 023a 0F91      		pop r16
 707 023c FF90      		pop r15
 708               	.LVL19:
 709 023e 0895      		ret
 710               	.LFE7:
 712               		.section	.text.ShowDate,"ax",@progbits
 713               	.global	ShowDate
 715               	ShowDate:
 716               	.LFB6:
 717               	.LSM134:
 718               	.LVL20:
 719 0000 9F92      		push r9
 720 0002 AF92      		push r10
 721 0004 BF92      		push r11
 722 0006 CF92      		push r12
 723 0008 DF92      		push r13
 724 000a EF92      		push r14
 725 000c FF92      		push r15
 726 000e 0F93      		push r16
 727 0010 1F93      		push r17
 728 0012 CF93      		push r28
 729 0014 DF93      		push r29
 730               	/* prologue: function */
 731               	/* frame size = 0 */
 732 0016 982E      		mov r9,r24
 733               	.LSM135:
 734 0018 8091 0000 		lds r24,gYEAR
 735 001c 9091 0000 		lds r25,(gYEAR)+1
 736               	.LVL21:
 737 0020 0E94 0000 		call CHAR2BCD2
 738 0024 182F      		mov r17,r24
 739               	.LVL22:
 740               	.LSM136:
 741 0026 082F      		mov r16,r24
 742 0028 0295      		swap r16
 743 002a 0F70      		andi r16,lo8(15)
 744               	.LSM137:
 745 002c 8091 0000 		lds r24,gMONTH
 746 0030 0E94 0000 		call CHAR2BCD2
 747 0034 F82E      		mov r15,r24
 748               	.LVL23:
 749               	.LSM138:
 750 0036 D82E      		mov r13,r24
 751 0038 D294      		swap r13
 752 003a 4FE0      		ldi r20,lo8(15)
 753 003c D422      		and r13,r20
 754               	.LSM139:
 755 003e 8091 0000 		lds r24,gDAY
 756 0042 0E94 0000 		call CHAR2BCD2
 757 0046 E82E      		mov r14,r24
 758               	.LVL24:
 759               	.LSM140:
 760 0048 C82E      		mov r12,r24
 761 004a C294      		swap r12
 762 004c 3FE0      		ldi r19,lo8(15)
 763 004e C322      		and r12,r19
 764               	.LBB2:
 765               	.LSM141:
 766 0050 8091 0000 		lds r24,dateformat
 767 0054 90E0      		ldi r25,lo8(0)
 768               	.LVL25:
 769 0056 880F      		lsl r24
 770 0058 991F      		rol r25
 771               	.LVL26:
 772 005a 8050      		subi r24,lo8(-(DATE_FORMAT_NR))
 773 005c 9040      		sbci r25,hi8(-(DATE_FORMAT_NR))
 774 005e FC01      		movw r30,r24
 775               	/* #APP */
 776               	 ;  410 "src/drv/RTC.c" 1
 777 0060 2591      		lpm r18, Z+
 778 0062 3491      		lpm r19, Z
 779               		
 780               	 ;  0 "" 2
 781               	.LVL27:
 782               	/* #NOAPP */
 783               	.LBE2:
 784               	.LBB3:
 785               	.LSM142:
 786 0064 E901      		movw r28,r18
 787               	.LVL28:
 788 0066 2196      		adiw r28,1
 789 0068 F901      		movw r30,r18
 790               	/* #APP */
 791               	 ;  411 "src/drv/RTC.c" 1
 792 006a 8491      		lpm r24, Z
 793               		
 794               	 ;  0 "" 2
 795               	.LVL29:
 796               	/* #NOAPP */
 797               	.LBE3:
 798 006c 005D      		subi r16,lo8(-(48))
 799 006e 602F      		mov r22,r16
 800 0070 0E94 0000 		call LCD_putc
 801               	.LVL30:
 802               	.LBB4:
 803               	.LSM143:
 804 0074 5E01      		movw r10,r28
 805 0076 0894      		sec
 806 0078 A11C      		adc r10,__zero_reg__
 807 007a B11C      		adc r11,__zero_reg__
 808               	.LVL31:
 809 007c FE01      		movw r30,r28
 810               	/* #APP */
 811               	 ;  412 "src/drv/RTC.c" 1
 812 007e 8491      		lpm r24, Z
 813               		
 814               	 ;  0 "" 2
 815               	.LVL32:
 816               	/* #NOAPP */
 817               	.LBE4:
 818 0080 1F70      		andi r17,lo8(15)
 819 0082 105D      		subi r17,lo8(-(48))
 820 0084 612F      		mov r22,r17
 821 0086 0E94 0000 		call LCD_putc
 822               	.LVL33:
 823               	.LBB5:
 824               	.LSM144:
 825 008a E501      		movw r28,r10
 826 008c 2196      		adiw r28,1
 827               	.LVL34:
 828 008e F501      		movw r30,r10
 829               	/* #APP */
 830               	 ;  413 "src/drv/RTC.c" 1
 831 0090 8491      		lpm r24, Z
 832               		
 833               	 ;  0 "" 2
 834               	.LVL35:
 835               	/* #NOAPP */
 836               	.LBE5:
 837 0092 F0E3      		ldi r31,lo8(48)
 838 0094 DF0E      		add r13,r31
 839 0096 6D2D      		mov r22,r13
 840 0098 0E94 0000 		call LCD_putc
 841               	.LVL36:
 842               	.LBB6:
 843               	.LSM145:
 844 009c 8E01      		movw r16,r28
 845 009e 0F5F      		subi r16,lo8(-(1))
 846 00a0 1F4F      		sbci r17,hi8(-(1))
 847               	.LVL37:
 848 00a2 FE01      		movw r30,r28
 849               	/* #APP */
 850               	 ;  414 "src/drv/RTC.c" 1
 851 00a4 8491      		lpm r24, Z
 852               		
 853               	 ;  0 "" 2
 854               	.LVL38:
 855               	/* #NOAPP */
 856               	.LBE6:
 857 00a6 FFE0      		ldi r31,lo8(15)
 858 00a8 FF22      		and r15,r31
 859 00aa 90E3      		ldi r25,lo8(48)
 860 00ac F90E      		add r15,r25
 861 00ae 6F2D      		mov r22,r15
 862 00b0 0E94 0000 		call LCD_putc
 863               	.LVL39:
 864               	.LBB7:
 865               	.LSM146:
 866 00b4 F801      		movw r30,r16
 867               	/* #APP */
 868               	 ;  415 "src/drv/RTC.c" 1
 869 00b6 8491      		lpm r24, Z
 870               		
 871               	 ;  0 "" 2
 872               	.LVL40:
 873               	/* #NOAPP */
 874               	.LBE7:
 875 00b8 F0E3      		ldi r31,lo8(48)
 876 00ba CF0E      		add r12,r31
 877 00bc 6C2D      		mov r22,r12
 878 00be 0E94 0000 		call LCD_putc
 879               	.LVL41:
 880               	.LBB8:
 881               	.LSM147:
 882 00c2 0F5F      		subi r16,lo8(-(1))
 883 00c4 1F4F      		sbci r17,hi8(-(1))
 884 00c6 F801      		movw r30,r16
 885               	/* #APP */
 886               	 ;  416 "src/drv/RTC.c" 1
 887 00c8 8491      		lpm r24, Z
 888               		
 889               	 ;  0 "" 2
 890               	.LVL42:
 891               	/* #NOAPP */
 892               	.LBE8:
 893 00ca FFE0      		ldi r31,lo8(15)
 894 00cc EF22      		and r14,r31
 895 00ce 90E3      		ldi r25,lo8(48)
 896 00d0 E90E      		add r14,r25
 897 00d2 6E2D      		mov r22,r14
 898 00d4 0E94 0000 		call LCD_putc
 899               	.LVL43:
 900               	.LSM148:
 901 00d8 86E0      		ldi r24,lo8(6)
 902 00da 60E0      		ldi r22,lo8(0)
 903 00dc 0E94 0000 		call LCD_putc
 904               	.LSM149:
 905 00e0 81E0      		ldi r24,lo8(1)
 906 00e2 0E94 0000 		call LCD_Colon
 907               	.LSM150:
 908 00e6 81E0      		ldi r24,lo8(1)
 909 00e8 60E0      		ldi r22,lo8(0)
 910 00ea 0E94 0000 		call LCD_UpdateRequired
 911               	.LSM151:
 912 00ee E3E0      		ldi r30,lo8(3)
 913 00f0 9E16      		cp r9,r30
 914 00f2 01F4      		brne .L64
 915 00f4 8BE1      		ldi r24,lo8(27)
 916 00f6 00C0      		rjmp .L65
 917               	.L64:
 918               	.LSM152:
 919 00f8 F2E0      		ldi r31,lo8(2)
 920 00fa 9F16      		cp r9,r31
 921 00fc 01F0      		breq .L66
 922 00fe 8CE1      		ldi r24,lo8(28)
 923 0100 00C0      		rjmp .L65
 924               	.L66:
 925 0102 8DE1      		ldi r24,lo8(29)
 926               	.L65:
 927               	/* epilogue start */
 928               	.LSM153:
 929 0104 DF91      		pop r29
 930 0106 CF91      		pop r28
 931 0108 1F91      		pop r17
 932               	.LVL44:
 933 010a 0F91      		pop r16
 934               	.LVL45:
 935 010c FF90      		pop r15
 936               	.LVL46:
 937 010e EF90      		pop r14
 938               	.LVL47:
 939 0110 DF90      		pop r13
 940 0112 CF90      		pop r12
 941 0114 BF90      		pop r11
 942 0116 AF90      		pop r10
 943 0118 9F90      		pop r9
 944               	.LVL48:
 945 011a 0895      		ret
 946               	.LFE6:
 948               		.section	.text.SetClock,"ax",@progbits
 949               	.global	SetClock
 951               	SetClock:
 952               	.LFB4:
 953               	.LSM154:
 954               	.LVL49:
 955 0000 EF92      		push r14
 956 0002 FF92      		push r15
 957 0004 0F93      		push r16
 958 0006 1F93      		push r17
 959               	/* prologue: function */
 960               	/* frame size = 0 */
 961 0008 E82E      		mov r14,r24
 962               	.LSM155:
 963 000a 8091 0000 		lds r24,enter_function.1471
 964               	.LVL50:
 965 000e 8823      		tst r24
 966 0010 01F0      		breq .L69
 967               	.LSM156:
 968 0012 8091 0000 		lds r24,gHOUR
 969 0016 8093 0000 		sts time.1472,r24
 970               	.LSM157:
 971 001a 8091 0000 		lds r24,gMINUTE
 972 001e 8093 0000 		sts time.1472+1,r24
 973               	.LSM158:
 974 0022 8091 0000 		lds r24,gSECOND
 975 0026 8093 0000 		sts time.1472+2,r24
 976               	.L69:
 977               	.LSM159:
 978 002a 8091 0000 		lds r24,clockformat
 979 002e 8823      		tst r24
 980 0030 01F4      		brne .L70
 981               	.LSM160:
 982 0032 E091 0000 		lds r30,time.1472
 983 0036 F0E0      		ldi r31,lo8(0)
 984 0038 E050      		subi r30,lo8(-(TBL_CLOCK_12))
 985 003a F040      		sbci r31,hi8(-(TBL_CLOCK_12))
 986 003c 8081      		ld r24,Z
 987 003e 00C0      		rjmp .L100
 988               	.L70:
 989               	.LSM161:
 990 0040 8091 0000 		lds r24,time.1472
 991               	.L100:
 992 0044 0E94 0000 		call CHAR2BCD2
 993 0048 182F      		mov r17,r24
 994               	.LVL51:
 995               	.LSM162:
 996 004a 8091 0000 		lds r24,time.1472+1
 997 004e 0E94 0000 		call CHAR2BCD2
 998 0052 082F      		mov r16,r24
 999               	.LVL52:
 1000               	.LSM163:
 1001 0054 8091 0000 		lds r24,time.1472+2
 1002 0058 0E94 0000 		call CHAR2BCD2
 1003 005c F82E      		mov r15,r24
 1004               	.LVL53:
 1005               	.LSM164:
 1006 005e 8091 0000 		lds r24,mode.1473
 1007 0062 8823      		tst r24
 1008 0064 01F0      		breq .L72
 1009 0066 60E0      		ldi r22,lo8(0)
 1010 0068 00C0      		rjmp .L73
 1011               	.L72:
 1012 006a 60E8      		ldi r22,lo8(-128)
 1013               	.L73:
 1014               	.LSM165:
 1015 006c 812F      		mov r24,r17
 1016 006e 8295      		swap r24
 1017 0070 8F70      		andi r24,lo8(15)
 1018               	.LSM166:
 1019 0072 805D      		subi r24,lo8(-(48))
 1020 0074 682B      		or r22,r24
 1021 0076 80E0      		ldi r24,lo8(0)
 1022 0078 0E94 0000 		call LCD_putc
 1023               	.LSM167:
 1024 007c 8091 0000 		lds r24,mode.1473
 1025 0080 8823      		tst r24
 1026 0082 01F0      		breq .L74
 1027 0084 60E0      		ldi r22,lo8(0)
 1028 0086 00C0      		rjmp .L75
 1029               	.L74:
 1030 0088 60E8      		ldi r22,lo8(-128)
 1031               	.L75:
 1032 008a 1F70      		andi r17,lo8(15)
 1033 008c 105D      		subi r17,lo8(-(48))
 1034 008e 612B      		or r22,r17
 1035 0090 81E0      		ldi r24,lo8(1)
 1036 0092 0E94 0000 		call LCD_putc
 1037               	.LSM168:
 1038 0096 8091 0000 		lds r24,mode.1473
 1039 009a 8130      		cpi r24,lo8(1)
 1040 009c 01F0      		breq .L76
 1041 009e 60E0      		ldi r22,lo8(0)
 1042 00a0 00C0      		rjmp .L77
 1043               	.L76:
 1044 00a2 60E8      		ldi r22,lo8(-128)
 1045               	.L77:
 1046               	.LSM169:
 1047 00a4 802F      		mov r24,r16
 1048 00a6 8295      		swap r24
 1049 00a8 8F70      		andi r24,lo8(15)
 1050               	.LSM170:
 1051 00aa 805D      		subi r24,lo8(-(48))
 1052 00ac 682B      		or r22,r24
 1053 00ae 82E0      		ldi r24,lo8(2)
 1054 00b0 0E94 0000 		call LCD_putc
 1055               	.LSM171:
 1056 00b4 8091 0000 		lds r24,mode.1473
 1057 00b8 8130      		cpi r24,lo8(1)
 1058 00ba 01F0      		breq .L78
 1059 00bc 60E0      		ldi r22,lo8(0)
 1060 00be 00C0      		rjmp .L79
 1061               	.L78:
 1062 00c0 60E8      		ldi r22,lo8(-128)
 1063               	.L79:
 1064 00c2 0F70      		andi r16,lo8(15)
 1065 00c4 005D      		subi r16,lo8(-(48))
 1066 00c6 602B      		or r22,r16
 1067 00c8 83E0      		ldi r24,lo8(3)
 1068 00ca 0E94 0000 		call LCD_putc
 1069               	.LSM172:
 1070 00ce 8091 0000 		lds r24,mode.1473
 1071 00d2 8230      		cpi r24,lo8(2)
 1072 00d4 01F0      		breq .L80
 1073 00d6 60E0      		ldi r22,lo8(0)
 1074 00d8 00C0      		rjmp .L81
 1075               	.L80:
 1076 00da 60E8      		ldi r22,lo8(-128)
 1077               	.L81:
 1078               	.LSM173:
 1079 00dc 8F2D      		mov r24,r15
 1080 00de 8295      		swap r24
 1081 00e0 8F70      		andi r24,lo8(15)
 1082               	.LSM174:
 1083 00e2 805D      		subi r24,lo8(-(48))
 1084 00e4 682B      		or r22,r24
 1085 00e6 84E0      		ldi r24,lo8(4)
 1086 00e8 0E94 0000 		call LCD_putc
 1087               	.LSM175:
 1088 00ec 8091 0000 		lds r24,mode.1473
 1089 00f0 8230      		cpi r24,lo8(2)
 1090 00f2 01F0      		breq .L82
 1091 00f4 60E0      		ldi r22,lo8(0)
 1092 00f6 00C0      		rjmp .L83
 1093               	.L82:
 1094 00f8 60E8      		ldi r22,lo8(-128)
 1095               	.L83:
 1096 00fa 8FE0      		ldi r24,lo8(15)
 1097 00fc F822      		and r15,r24
 1098 00fe 80E3      		ldi r24,lo8(48)
 1099 0100 F80E      		add r15,r24
 1100 0102 6F29      		or r22,r15
 1101 0104 85E0      		ldi r24,lo8(5)
 1102 0106 0E94 0000 		call LCD_putc
 1103               	.LSM176:
 1104 010a 86E0      		ldi r24,lo8(6)
 1105 010c 60E0      		ldi r22,lo8(0)
 1106 010e 0E94 0000 		call LCD_putc
 1107               	.LSM177:
 1108 0112 81E0      		ldi r24,lo8(1)
 1109 0114 0E94 0000 		call LCD_Colon
 1110               	.LSM178:
 1111 0118 EE20      		tst r14
 1112 011a 01F0      		breq .L84
 1113               	.LSM179:
 1114 011c 0E94 0000 		call LCD_FlashReset
 1115               	.L84:
 1116               	.LSM180:
 1117 0120 81E0      		ldi r24,lo8(1)
 1118 0122 60E0      		ldi r22,lo8(0)
 1119 0124 0E94 0000 		call LCD_UpdateRequired
 1120               	.LSM181:
 1121 0128 81E0      		ldi r24,lo8(1)
 1122 012a 8093 0000 		sts enter_function.1471,r24
 1123               	.LSM182:
 1124 012e 84E0      		ldi r24,lo8(4)
 1125 0130 E816      		cp r14,r24
 1126 0132 01F4      		brne .L85
 1127               	.LSM183:
 1128 0134 E091 0000 		lds r30,mode.1473
 1129 0138 F0E0      		ldi r31,lo8(0)
 1130 013a E050      		subi r30,lo8(-(time.1472))
 1131 013c F040      		sbci r31,hi8(-(time.1472))
 1132 013e 8081      		ld r24,Z
 1133 0140 8F5F      		subi r24,lo8(-(1))
 1134 0142 00C0      		rjmp .L102
 1135               	.L85:
 1136               	.LSM184:
 1137 0144 85E0      		ldi r24,lo8(5)
 1138 0146 E816      		cp r14,r24
 1139 0148 01F4      		brne .L87
 1140               	.LSM185:
 1141 014a E091 0000 		lds r30,mode.1473
 1142 014e F0E0      		ldi r31,lo8(0)
 1143 0150 E050      		subi r30,lo8(-(time.1472))
 1144 0152 F040      		sbci r31,hi8(-(time.1472))
 1145 0154 8081      		ld r24,Z
 1146 0156 8150      		subi r24,lo8(-(-1))
 1147               	.L102:
 1148 0158 8083      		st Z,r24
 1149 015a 00C0      		rjmp .L86
 1150               	.L87:
 1151               	.LSM186:
 1152 015c 83E0      		ldi r24,lo8(3)
 1153 015e E816      		cp r14,r24
 1154 0160 01F4      		brne .L88
 1155               	.LSM187:
 1156 0162 8091 0000 		lds r24,mode.1473
 1157 0166 8823      		tst r24
 1158 0168 01F4      		brne .L89
 1159               	.LSM188:
 1160 016a 82E0      		ldi r24,lo8(2)
 1161 016c 00C0      		rjmp .L101
 1162               	.L89:
 1163               	.LSM189:
 1164 016e 8150      		subi r24,lo8(-(-1))
 1165 0170 00C0      		rjmp .L101
 1166               	.L88:
 1167               	.LSM190:
 1168 0172 82E0      		ldi r24,lo8(2)
 1169 0174 E816      		cp r14,r24
 1170 0176 01F4      		brne .L90
 1171               	.LSM191:
 1172 0178 8091 0000 		lds r24,mode.1473
 1173 017c 8230      		cpi r24,lo8(2)
 1174 017e 01F4      		brne .L91
 1175               	.LSM192:
 1176 0180 1092 0000 		sts mode.1473,__zero_reg__
 1177 0184 00C0      		rjmp .L86
 1178               	.L91:
 1179               	.LSM193:
 1180 0186 8F5F      		subi r24,lo8(-(1))
 1181               	.L101:
 1182 0188 8093 0000 		sts mode.1473,r24
 1183 018c 00C0      		rjmp .L86
 1184               	.L90:
 1185               	.LSM194:
 1186 018e 81E0      		ldi r24,lo8(1)
 1187 0190 E816      		cp r14,r24
 1188 0192 01F4      		brne .L86
 1189               	.LSM195:
 1190               	/* #APP */
 1191               	 ;  280 "src/drv/RTC.c" 1
 1192 0194 F894      		cli
 1193               	 ;  0 "" 2
 1194               	.LSM196:
 1195               	/* #NOAPP */
 1196 0196 8091 0000 		lds r24,time.1472
 1197 019a 8093 0000 		sts gHOUR,r24
 1198               	.LSM197:
 1199 019e 8091 0000 		lds r24,time.1472+1
 1200 01a2 8093 0000 		sts gMINUTE,r24
 1201               	.LSM198:
 1202 01a6 8091 0000 		lds r24,time.1472+2
 1203 01aa 8093 0000 		sts gSECOND,r24
 1204               	.LSM199:
 1205               	/* #APP */
 1206               	 ;  284 "src/drv/RTC.c" 1
 1207 01ae 7894      		sei
 1208               	 ;  0 "" 2
 1209               	.LSM200:
 1210               	/* #NOAPP */
 1211 01b0 1092 0000 		sts mode.1473,__zero_reg__
 1212 01b4 86E1      		ldi r24,lo8(22)
 1213 01b6 00C0      		rjmp .L92
 1214               	.L86:
 1215               	.LSM201:
 1216 01b8 8091 0000 		lds r24,time.1472
 1217 01bc 8F3F      		cpi r24,lo8(-1)
 1218 01be 01F4      		brne .L93
 1219               	.LSM202:
 1220 01c0 87E1      		ldi r24,lo8(23)
 1221 01c2 8093 0000 		sts time.1472,r24
 1222               	.L93:
 1223               	.LSM203:
 1224 01c6 8091 0000 		lds r24,time.1472
 1225 01ca 8831      		cpi r24,lo8(24)
 1226 01cc 00F0      		brlo .L94
 1227               	.LSM204:
 1228 01ce 1092 0000 		sts time.1472,__zero_reg__
 1229               	.L94:
 1230               	.LSM205:
 1231 01d2 8091 0000 		lds r24,time.1472+1
 1232 01d6 8F3F      		cpi r24,lo8(-1)
 1233 01d8 01F4      		brne .L95
 1234               	.LSM206:
 1235 01da 8BE3      		ldi r24,lo8(59)
 1236 01dc 8093 0000 		sts time.1472+1,r24
 1237               	.L95:
 1238               	.LSM207:
 1239 01e0 8091 0000 		lds r24,time.1472+1
 1240 01e4 8C33      		cpi r24,lo8(60)
 1241 01e6 00F0      		brlo .L96
 1242               	.LSM208:
 1243 01e8 1092 0000 		sts time.1472+1,__zero_reg__
 1244               	.L96:
 1245               	.LSM209:
 1246 01ec 8091 0000 		lds r24,time.1472+2
 1247 01f0 8F3F      		cpi r24,lo8(-1)
 1248 01f2 01F4      		brne .L97
 1249               	.LSM210:
 1250 01f4 8BE3      		ldi r24,lo8(59)
 1251 01f6 8093 0000 		sts time.1472+2,r24
 1252               	.L97:
 1253               	.LSM211:
 1254 01fa 8091 0000 		lds r24,time.1472+2
 1255 01fe 8C33      		cpi r24,lo8(60)
 1256 0200 00F0      		brlo .L98
 1257               	.LSM212:
 1258 0202 1092 0000 		sts time.1472+2,__zero_reg__
 1259               	.L98:
 1260               	.LSM213:
 1261 0206 1092 0000 		sts enter_function.1471,__zero_reg__
 1262 020a 88E1      		ldi r24,lo8(24)
 1263               	.L92:
 1264               	/* epilogue start */
 1265               	.LSM214:
 1266 020c 1F91      		pop r17
 1267               	.LVL54:
 1268 020e 0F91      		pop r16
 1269               	.LVL55:
 1270 0210 FF90      		pop r15
 1271               	.LVL56:
 1272 0212 EF90      		pop r14
 1273               	.LVL57:
 1274 0214 0895      		ret
 1275               	.LFE4:
 1277               		.section	.text.ShowClock,"ax",@progbits
 1278               	.global	ShowClock
 1280               	ShowClock:
 1281               	.LFB3:
 1282               	.LSM215:
 1283               	.LVL58:
 1284 0000 BF92      		push r11
 1285 0002 CF92      		push r12
 1286 0004 DF92      		push r13
 1287 0006 EF92      		push r14
 1288 0008 FF92      		push r15
 1289 000a 0F93      		push r16
 1290 000c 1F93      		push r17
 1291               	/* prologue: function */
 1292               	/* frame size = 0 */
 1293 000e B82E      		mov r11,r24
 1294               	.LSM216:
 1295 0010 8091 0000 		lds r24,clockformat
 1296               	.LVL59:
 1297 0014 8823      		tst r24
 1298 0016 01F4      		brne .L104
 1299               	.LSM217:
 1300 0018 E091 0000 		lds r30,gHOUR
 1301 001c F0E0      		ldi r31,lo8(0)
 1302 001e E050      		subi r30,lo8(-(TBL_CLOCK_12))
 1303 0020 F040      		sbci r31,hi8(-(TBL_CLOCK_12))
 1304 0022 8081      		ld r24,Z
 1305 0024 00C0      		rjmp .L110
 1306               	.L104:
 1307               	.LSM218:
 1308 0026 8091 0000 		lds r24,gHOUR
 1309               	.L110:
 1310 002a 0E94 0000 		call CHAR2BCD2
 1311 002e 082F      		mov r16,r24
 1312               	.LVL60:
 1313               	.LSM219:
 1314 0030 182F      		mov r17,r24
 1315 0032 1295      		swap r17
 1316 0034 1F70      		andi r17,lo8(15)
 1317               	.LSM220:
 1318 0036 8091 0000 		lds r24,gMINUTE
 1319 003a 0E94 0000 		call CHAR2BCD2
 1320 003e C82E      		mov r12,r24
 1321               	.LVL61:
 1322               	.LSM221:
 1323 0040 E82E      		mov r14,r24
 1324 0042 E294      		swap r14
 1325 0044 6FE0      		ldi r22,lo8(15)
 1326 0046 E622      		and r14,r22
 1327               	.LSM222:
 1328 0048 8091 0000 		lds r24,gSECOND
 1329 004c 0E94 0000 		call CHAR2BCD2
 1330 0050 F82E      		mov r15,r24
 1331               	.LVL62:
 1332               	.LSM223:
 1333 0052 D82E      		mov r13,r24
 1334 0054 D294      		swap r13
 1335 0056 5FE0      		ldi r21,lo8(15)
 1336 0058 D522      		and r13,r21
 1337               	.LSM224:
 1338 005a 105D      		subi r17,lo8(-(48))
 1339 005c 80E0      		ldi r24,lo8(0)
 1340 005e 612F      		mov r22,r17
 1341 0060 0E94 0000 		call LCD_putc
 1342               	.LSM225:
 1343 0064 0F70      		andi r16,lo8(15)
 1344 0066 005D      		subi r16,lo8(-(48))
 1345 0068 81E0      		ldi r24,lo8(1)
 1346 006a 602F      		mov r22,r16
 1347 006c 0E94 0000 		call LCD_putc
 1348               	.LSM226:
 1349 0070 80E3      		ldi r24,lo8(48)
 1350 0072 E80E      		add r14,r24
 1351 0074 82E0      		ldi r24,lo8(2)
 1352 0076 6E2D      		mov r22,r14
 1353 0078 0E94 0000 		call LCD_putc
 1354               	.LSM227:
 1355 007c 8FE0      		ldi r24,lo8(15)
 1356 007e C822      		and r12,r24
 1357 0080 80E3      		ldi r24,lo8(48)
 1358 0082 C80E      		add r12,r24
 1359 0084 83E0      		ldi r24,lo8(3)
 1360 0086 6C2D      		mov r22,r12
 1361 0088 0E94 0000 		call LCD_putc
 1362               	.LSM228:
 1363 008c 80E3      		ldi r24,lo8(48)
 1364 008e D80E      		add r13,r24
 1365 0090 84E0      		ldi r24,lo8(4)
 1366 0092 6D2D      		mov r22,r13
 1367 0094 0E94 0000 		call LCD_putc
 1368               	.LSM229:
 1369 0098 8FE0      		ldi r24,lo8(15)
 1370 009a F822      		and r15,r24
 1371 009c 80E3      		ldi r24,lo8(48)
 1372 009e F80E      		add r15,r24
 1373 00a0 85E0      		ldi r24,lo8(5)
 1374 00a2 6F2D      		mov r22,r15
 1375 00a4 0E94 0000 		call LCD_putc
 1376               	.LSM230:
 1377 00a8 86E0      		ldi r24,lo8(6)
 1378 00aa 60E0      		ldi r22,lo8(0)
 1379 00ac 0E94 0000 		call LCD_putc
 1380               	.LSM231:
 1381 00b0 81E0      		ldi r24,lo8(1)
 1382 00b2 0E94 0000 		call LCD_Colon
 1383               	.LSM232:
 1384 00b6 81E0      		ldi r24,lo8(1)
 1385 00b8 60E0      		ldi r22,lo8(0)
 1386 00ba 0E94 0000 		call LCD_UpdateRequired
 1387               	.LSM233:
 1388 00be 83E0      		ldi r24,lo8(3)
 1389 00c0 B816      		cp r11,r24
 1390 00c2 01F4      		brne .L106
 1391 00c4 85E1      		ldi r24,lo8(21)
 1392 00c6 00C0      		rjmp .L107
 1393               	.L106:
 1394               	.LSM234:
 1395 00c8 82E0      		ldi r24,lo8(2)
 1396 00ca B816      		cp r11,r24
 1397 00cc 01F0      		breq .L108
 1398 00ce 86E1      		ldi r24,lo8(22)
 1399 00d0 00C0      		rjmp .L107
 1400               	.L108:
 1401 00d2 87E1      		ldi r24,lo8(23)
 1402               	.L107:
 1403               	/* epilogue start */
 1404               	.LSM235:
 1405 00d4 1F91      		pop r17
 1406 00d6 0F91      		pop r16
 1407               	.LVL63:
 1408 00d8 FF90      		pop r15
 1409               	.LVL64:
 1410 00da EF90      		pop r14
 1411 00dc DF90      		pop r13
 1412 00de CF90      		pop r12
 1413               	.LVL65:
 1414 00e0 BF90      		pop r11
 1415               	.LVL66:
 1416 00e2 0895      		ret
 1417               	.LFE3:
 1419               		.section	.text.RTC_init,"ax",@progbits
 1420               	.global	RTC_init
 1422               	RTC_init:
 1423               	.LFB2:
 1424               	.LSM236:
 1425               	/* prologue: function */
 1426               	/* frame size = 0 */
 1427               	.LSM237:
 1428 0000 88EE      		ldi r24,lo8(1000)
 1429 0002 93E0      		ldi r25,hi8(1000)
 1430 0004 0E94 0000 		call Delay
 1431               	.LSM238:
 1432               	/* #APP */
 1433               	 ;  111 "src/drv/RTC.c" 1
 1434 0008 F894      		cli
 1435               	 ;  0 "" 2
 1436               	.LSM239:
 1437               	/* #NOAPP */
 1438 000a 8091 7000 		lds r24,112
 1439 000e 8E7F      		andi r24,lo8(-2)
 1440 0010 8093 7000 		sts 112,r24
 1441               	.LSM240:
 1442 0014 88E0      		ldi r24,lo8(8)
 1443 0016 8093 B600 		sts 182,r24
 1444               	.LSM241:
 1445 001a 1092 B200 		sts 178,__zero_reg__
 1446               	.LSM242:
 1447 001e 8091 B000 		lds r24,176
 1448 0022 8560      		ori r24,lo8(5)
 1449 0024 8093 B000 		sts 176,r24
 1450               	.L112:
 1451               	.LSM243:
 1452 0028 2091 B600 		lds r18,182
 1453 002c 8091 B600 		lds r24,182
 1454 0030 90E0      		ldi r25,lo8(0)
 1455 0032 8470      		andi r24,lo8(4)
 1456 0034 9070      		andi r25,hi8(4)
 1457 0036 30E0      		ldi r19,lo8(0)
 1458 0038 2170      		andi r18,lo8(1)
 1459 003a 3070      		andi r19,hi8(1)
 1460 003c 822B      		or r24,r18
 1461 003e 932B      		or r25,r19
 1462 0040 892B      		or r24,r25
 1463 0042 01F4      		brne .L112
 1464               	.LSM244:
 1465 0044 8FEF      		ldi r24,lo8(-1)
 1466 0046 87BB      		out 55-32,r24
 1467               	.LSM245:
 1468 0048 8091 7000 		lds r24,112
 1469 004c 8160      		ori r24,lo8(1)
 1470 004e 8093 7000 		sts 112,r24
 1471               	.LSM246:
 1472               	/* #APP */
 1473               	 ;  125 "src/drv/RTC.c" 1
 1474 0052 7894      		sei
 1475               	 ;  0 "" 2
 1476               	.LSM247:
 1477               	/* #NOAPP */
 1478 0054 1092 0000 		sts gSECOND,__zero_reg__
 1479               	.LSM248:
 1480 0058 1092 0000 		sts gMINUTE,__zero_reg__
 1481               	.LSM249:
 1482 005c 8CE0      		ldi r24,lo8(12)
 1483 005e 8093 0000 		sts gHOUR,r24
 1484               	.LSM250:
 1485 0062 8093 0000 		sts gDAY,r24
 1486               	.LSM251:
 1487 0066 83E0      		ldi r24,lo8(3)
 1488 0068 8093 0000 		sts gMONTH,r24
 1489               	.LSM252:
 1490 006c 89E0      		ldi r24,lo8(9)
 1491 006e 90E0      		ldi r25,hi8(9)
 1492 0070 9093 0000 		sts (gYEAR)+1,r25
 1493 0074 8093 0000 		sts gYEAR,r24
 1494               	/* epilogue start */
 1495               	.LSM253:
 1496 0078 0895      		ret
 1497               	.LFE2:
 1499               	.global	gPowerSaveTimer
 1500               		.section	.bss.gPowerSaveTimer,"aw",@nobits
 1503               	gPowerSaveTimer:
 1504 0000 00        		.skip 1,0
 1505               	.global	dateformat
 1506               		.section	.bss.dateformat,"aw",@nobits
 1509               	dateformat:
 1510 0000 00        		.skip 1,0
 1511               	.global	MonthLength
 1512               		.section	.data.MonthLength,"aw",@progbits
 1515               	MonthLength:
 1516 0000 00        		.byte	0
 1517 0001 1F        		.byte	31
 1518 0002 1C        		.byte	28
 1519 0003 1F        		.byte	31
 1520 0004 1E        		.byte	30
 1521 0005 1F        		.byte	31
 1522 0006 1E        		.byte	30
 1523 0007 1F        		.byte	31
 1524 0008 1F        		.byte	31
 1525 0009 1E        		.byte	30
 1526 000a 1F        		.byte	31
 1527 000b 1E        		.byte	30
 1528 000c 1F        		.byte	31
 1529               	.global	TBL_CLOCK_12
 1530               		.section	.data.TBL_CLOCK_12,"aw",@progbits
 1533               	TBL_CLOCK_12:
 1534 0000 0C        		.byte	12
 1535 0001 01        		.byte	1
 1536 0002 02        		.byte	2
 1537 0003 03        		.byte	3
 1538 0004 04        		.byte	4
 1539 0005 05        		.byte	5
 1540 0006 06        		.byte	6
 1541 0007 07        		.byte	7
 1542 0008 08        		.byte	8
 1543 0009 09        		.byte	9
 1544 000a 0A        		.byte	10
 1545 000b 0B        		.byte	11
 1546 000c 0C        		.byte	12
 1547 000d 01        		.byte	1
 1548 000e 02        		.byte	2
 1549 000f 03        		.byte	3
 1550 0010 04        		.byte	4
 1551 0011 05        		.byte	5
 1552 0012 06        		.byte	6
 1553 0013 07        		.byte	7
 1554 0014 08        		.byte	8
 1555 0015 09        		.byte	9
 1556 0016 0A        		.byte	10
 1557 0017 0B        		.byte	11
 1558               	.global	clockformat
 1559               		.section	.data.clockformat,"aw",@progbits
 1562               	clockformat:
 1563 0000 01        		.byte	1
 1564               	.global	EUROPEAN_DATE_TEXT
 1565               		.section	.progmem.data,"a",@progbits
 1568               	EUROPEAN_DATE_TEXT:
 1569 0000 4444 4D4D 		.string	"DDMMYY"
 1569      5959 00
 1570               	.global	AMERICAN_DATE_TEXT
 1573               	AMERICAN_DATE_TEXT:
 1574 0007 4D4D 4444 		.string	"MMDDYY"
 1574      5959 00
 1575               	.global	CANADIAN_DATE_TEXT
 1578               	CANADIAN_DATE_TEXT:
 1579 000e 5959 4D4D 		.string	"YYMMDD"
 1579      4444 00
 1580               	.global	EUROPEAN_DATE_NR
 1583               	EUROPEAN_DATE_NR:
 1584 0015 04        		.byte	4
 1585 0016 05        		.byte	5
 1586 0017 02        		.byte	2
 1587 0018 03        		.byte	3
 1588 0019 00        		.byte	0
 1589 001a 01        		.byte	1
 1590               	.global	AMERICAN_DATE_NR
 1593               	AMERICAN_DATE_NR:
 1594 001b 04        		.byte	4
 1595 001c 05        		.byte	5
 1596 001d 00        		.byte	0
 1597 001e 01        		.byte	1
 1598 001f 02        		.byte	2
 1599 0020 03        		.byte	3
 1600               	.global	CANADIAN_DATE_NR
 1603               	CANADIAN_DATE_NR:
 1604 0021 00        		.byte	0
 1605 0022 01        		.byte	1
 1606 0023 02        		.byte	2
 1607 0024 03        		.byte	3
 1608 0025 04        		.byte	4
 1609 0026 05        		.byte	5
 1610               	.global	DATEFORMAT_TEXT
 1611               		.section	.data.DATEFORMAT_TEXT,"aw",@progbits
 1614               	DATEFORMAT_TEXT:
 1615 0000 0000      		.word	EUROPEAN_DATE_TEXT
 1616 0002 0000      		.word	AMERICAN_DATE_TEXT
 1617 0004 0000      		.word	CANADIAN_DATE_TEXT
 1618               	.global	DATE_FORMAT_NR
 1619               		.section	.progmem.data
 1622               	DATE_FORMAT_NR:
 1623 0027 0000      		.word	EUROPEAN_DATE_NR
 1624 0029 0000      		.word	AMERICAN_DATE_NR
 1625 002b 0000      		.word	CANADIAN_DATE_NR
 1626               		.section	.bss.LeapMonth.1664,"aw",@nobits
 1629               	LeapMonth.1664:
 1630 0000 00        		.skip 1,0
 1631               		.section	.data.enter.1651,"aw",@progbits
 1634               	enter.1651:
 1635 0000 01        		.byte	1
 1636               		.section	.data.mode.1605,"aw",@progbits
 1639               	mode.1605:
 1640 0000 02        		.byte	2
 1641               		.section	.bss.date.1604,"aw",@nobits
 1644               	date.1604:
 1645 0000 0000 00   		.skip 3,0
 1646               		.section	.data.enter_function.1603,"aw",@progbits
 1649               	enter_function.1603:
 1650 0000 01        		.byte	1
 1651               		.section	.progmem.data
 1654               	__c.1546:
 1655 002d 3132 4800 		.string	"12H"
 1658               	__c.1544:
 1659 0031 3234 4800 		.string	"24H"
 1662               	__c.1542:
 1663 0035 3234 4800 		.string	"24H"
 1666               	__c.1540:
 1667 0039 3132 4800 		.string	"12H"
 1670               	__c.1538:
 1671 003d 3132 4800 		.string	"12H"
 1674               	__c.1536:
 1675 0041 3234 4800 		.string	"24H"
 1676               		.section	.data.enter.1535,"aw",@progbits
 1679               	enter.1535:
 1680 0000 01        		.byte	1
 1681               		.section	.bss.mode.1473,"aw",@nobits
 1684               	mode.1473:
 1685 0000 00        		.skip 1,0
 1686               		.section	.bss.time.1472,"aw",@nobits
 1689               	time.1472:
 1690 0000 0000 00   		.skip 3,0
 1691               		.section	.data.enter_function.1471,"aw",@progbits
 1694               	enter_function.1471:
 1695 0000 01        		.byte	1
 1696               		.comm gSECOND,1,1
 1697               		.comm gMINUTE,1,1
 1698               		.comm gHOUR,1,1
 1699               		.comm gDAY,1,1
 1700               		.comm gMONTH,1,1
 1701               		.comm gYEAR,2,1
 1782               	.Letext0:
DEFINED SYMBOLS
                            *ABS*:00000000 RTC.c
C:\Users\MainUser\AppData\Local\Temp/ccVMiSEE.s:2      *ABS*:0000003f __SREG__
C:\Users\MainUser\AppData\Local\Temp/ccVMiSEE.s:3      *ABS*:0000003e __SP_H__
C:\Users\MainUser\AppData\Local\Temp/ccVMiSEE.s:4      *ABS*:0000003d __SP_L__
C:\Users\MainUser\AppData\Local\Temp/ccVMiSEE.s:5      *ABS*:00000034 __CCP__
C:\Users\MainUser\AppData\Local\Temp/ccVMiSEE.s:6      *ABS*:00000000 __tmp_reg__
C:\Users\MainUser\AppData\Local\Temp/ccVMiSEE.s:7      *ABS*:00000001 __zero_reg__
C:\Users\MainUser\AppData\Local\Temp/ccVMiSEE.s:19     .text.__vector_5:00000000 __vector_5
                            *COM*:00000001 gSECOND
                            *COM*:00000001 gMINUTE
C:\Users\MainUser\AppData\Local\Temp/ccVMiSEE.s:1503   .bss.gPowerSaveTimer:00000000 gPowerSaveTimer
                            *COM*:00000001 gHOUR
                            *COM*:00000001 gDAY
                            *COM*:00000001 gMONTH
                            *COM*:00000002 gYEAR
C:\Users\MainUser\AppData\Local\Temp/ccVMiSEE.s:1629   .bss.LeapMonth.1664:00000000 LeapMonth.1664
C:\Users\MainUser\AppData\Local\Temp/ccVMiSEE.s:1515   .data.MonthLength:00000000 MonthLength
C:\Users\MainUser\AppData\Local\Temp/ccVMiSEE.s:177    .text.SetDateFormat:00000000 SetDateFormat
C:\Users\MainUser\AppData\Local\Temp/ccVMiSEE.s:1634   .data.enter.1651:00000000 enter.1651
C:\Users\MainUser\AppData\Local\Temp/ccVMiSEE.s:1509   .bss.dateformat:00000000 dateformat
C:\Users\MainUser\AppData\Local\Temp/ccVMiSEE.s:1614   .data.DATEFORMAT_TEXT:00000000 DATEFORMAT_TEXT
C:\Users\MainUser\AppData\Local\Temp/ccVMiSEE.s:269    .text.SetClockFormat:00000000 SetClockFormat
C:\Users\MainUser\AppData\Local\Temp/ccVMiSEE.s:1679   .data.enter.1535:00000000 enter.1535
C:\Users\MainUser\AppData\Local\Temp/ccVMiSEE.s:1562   .data.clockformat:00000000 clockformat
C:\Users\MainUser\AppData\Local\Temp/ccVMiSEE.s:1674   .progmem.data:00000041 __c.1536
C:\Users\MainUser\AppData\Local\Temp/ccVMiSEE.s:1670   .progmem.data:0000003d __c.1538
C:\Users\MainUser\AppData\Local\Temp/ccVMiSEE.s:1666   .progmem.data:00000039 __c.1540
C:\Users\MainUser\AppData\Local\Temp/ccVMiSEE.s:1662   .progmem.data:00000035 __c.1542
C:\Users\MainUser\AppData\Local\Temp/ccVMiSEE.s:1658   .progmem.data:00000031 __c.1544
C:\Users\MainUser\AppData\Local\Temp/ccVMiSEE.s:1654   .progmem.data:0000002d __c.1546
C:\Users\MainUser\AppData\Local\Temp/ccVMiSEE.s:367    .text.SetDate:00000000 SetDate
C:\Users\MainUser\AppData\Local\Temp/ccVMiSEE.s:1649   .data.enter_function.1603:00000000 enter_function.1603
C:\Users\MainUser\AppData\Local\Temp/ccVMiSEE.s:1644   .bss.date.1604:00000000 date.1604
C:\Users\MainUser\AppData\Local\Temp/ccVMiSEE.s:1639   .data.mode.1605:00000000 mode.1605
C:\Users\MainUser\AppData\Local\Temp/ccVMiSEE.s:715    .text.ShowDate:00000000 ShowDate
C:\Users\MainUser\AppData\Local\Temp/ccVMiSEE.s:1622   .progmem.data:00000027 DATE_FORMAT_NR
C:\Users\MainUser\AppData\Local\Temp/ccVMiSEE.s:951    .text.SetClock:00000000 SetClock
C:\Users\MainUser\AppData\Local\Temp/ccVMiSEE.s:1694   .data.enter_function.1471:00000000 enter_function.1471
C:\Users\MainUser\AppData\Local\Temp/ccVMiSEE.s:1689   .bss.time.1472:00000000 time.1472
C:\Users\MainUser\AppData\Local\Temp/ccVMiSEE.s:1533   .data.TBL_CLOCK_12:00000000 TBL_CLOCK_12
C:\Users\MainUser\AppData\Local\Temp/ccVMiSEE.s:1684   .bss.mode.1473:00000000 mode.1473
C:\Users\MainUser\AppData\Local\Temp/ccVMiSEE.s:1280   .text.ShowClock:00000000 ShowClock
C:\Users\MainUser\AppData\Local\Temp/ccVMiSEE.s:1422   .text.RTC_init:00000000 RTC_init
C:\Users\MainUser\AppData\Local\Temp/ccVMiSEE.s:1568   .progmem.data:00000000 EUROPEAN_DATE_TEXT
C:\Users\MainUser\AppData\Local\Temp/ccVMiSEE.s:1573   .progmem.data:00000007 AMERICAN_DATE_TEXT
C:\Users\MainUser\AppData\Local\Temp/ccVMiSEE.s:1578   .progmem.data:0000000e CANADIAN_DATE_TEXT
C:\Users\MainUser\AppData\Local\Temp/ccVMiSEE.s:1583   .progmem.data:00000015 EUROPEAN_DATE_NR
C:\Users\MainUser\AppData\Local\Temp/ccVMiSEE.s:1593   .progmem.data:0000001b AMERICAN_DATE_NR
C:\Users\MainUser\AppData\Local\Temp/ccVMiSEE.s:1603   .progmem.data:00000021 CANADIAN_DATE_NR

UNDEFINED SYMBOLS
__udivmodhi4
LCD_puts_f
CHAR2BCD2
LCD_putc
LCD_Colon
LCD_FlashReset
LCD_UpdateRequired
Delay
__do_copy_data
__do_clear_bss
